gpasm-0.14.3 #861 (Oct 28 2012) mios_wrapper\   11-16-2013  11:38:41        PAGE  1


LOC  OBJECT CODE     LINE SOURCE TEXT
  VALUE

                      00001 ;
                      00002 ; This is the MIOS wrapper for SDCC (qualified for v2.5.0 and v2.6.0)
                      00003 ;
                      00004 ; the upper boundary of the stacks are defined here 
                      00005 ; customize the values for your needs
                      00006 #ifndef STACK_HEAD
                      00007 #define STACK_HEAD 0x37f
                      00008 #endif
                      00009 
                      00010 #ifndef STACK_IRQ_HEAD
                      00011 #define STACK_IRQ_HEAD 0x33f
                      00012 #endif
                      00013 ;
                      00014 ; ==========================================================================
                      00015 ;
                      00016 ;  Copyright 1998-2006 Thorsten Klose (tk@midibox.org)
                      00017 ;  Licensed for personal non-commercial use only.
                      00018 ;  All other rights reserved.
                      00019 ; 
                      00020 ; ==========================================================================
                      00021 
                      00022 ;; ---[ MIOS header file ]---
                      00001 #include "mios.h"
                      00002 ;
                      00003 ; MIOS Definitions file
                      00004 ;
                      00005 ; ==========================================================================
                      00006 ;
                      00007 ;  Copyright 1998-2006 Thorsten Klose (tk@midibox.org)
                      00008 ;  Licensed for personal non-commercial use only.
                      00009 ;  All other rights reserved.
                      00010 ; 
                      00011 ; ==========================================================================
                      00012 
                      00013  
                      00014 ;; ==========================================================================
                      00015 ;;  Select the device here
                      00016 ;;     0: PIC18F452   (writable range: 0x0400-0x7fff)
                      00017 ;;     1: PIC18F4620  (writable range: 0x0400-0xffff)
                      00018 ;;     2: PIC18F4520  (writable range: 0x0400-0x7fff)
                      00019 ;; ==========================================================================
                      00020 
                      00021 #define PIC_DERIVATIVE_TYPE     0
                      00022 
                      00023 ;; ==========================================================================
                      00024 ;;  Assembler directives & device specific include file
                      00025 ;; ==========================================================================
                      00026 
                      00027 #if PIC_DERIVATIVE_TYPE == 0
                      00028         LIST P=PIC18F452, R=DEC
                      00001 #include <p18f452.inc>
                      00002         LIST
                      00003 ; P18F452.INC  Standard Header File, Version 1.4   Microchip Technology, Inc.
gpasm-0.14.3 #861 (Oct 28 2012) mios_wrapper\   11-16-2013  11:38:41        PAGE  2


LOC  OBJECT CODE     LINE SOURCE TEXT
  VALUE

                      00846         LIST
                      00029 #endif
                      00030 
                      00031 #if PIC_DERIVATIVE_TYPE == 1
                      00032         LIST P=PIC18F4620, R=DEC
                      00033 #include <p18f4620.inc>
                      00034 #endif
                      00035         
                      00036 #if PIC_DERIVATIVE_TYPE == 2
                      00037         LIST P=PIC18F4520, R=DEC
                      00038 #include <p18f4520.inc>
                      00039 #endif
                      00040 
                      00041 ;; ==========================================================================
                      00042 ;;  General constants
                      00043 ;; ==========================================================================
                      00044 
                      00045 ;; used by MIOS_MIDI_Interface*
  00000000            00046 MIOS_MIDI_INTERFACE_COMMON      EQU     0x00
  00000001            00047 MIOS_MIDI_INTERFACE_TO_HOST     EQU     0x01
                      00048 
                      00049 ;; used by MIOS_MIDI_Merger*
  00000000            00050 MIOS_MIDI_MERGER_DISABLED       EQU     0x00
  00000001            00051 MIOS_MIDI_MERGER_ENABLED        EQU     0x01
  00000002            00052 MIOS_MIDI_MERGER_MBLINK_EP      EQU     0x02
  00000003            00053 MIOS_MIDI_MERGER_MBLINK_FP      EQU     0x03
                      00054 
                      00055 ;; used by MIOS_ENC_PIN_TABLE
  00000000            00056 MIOS_ENC_MODE_NON_DETENTED      EQU     0x00
  00000080            00057 MIOS_ENC_MODE_DETENTED          EQU     0x80
  00000081            00058 MIOS_ENC_MODE_DETENTED2         EQU     0x81
                      00059 
                      00060 ;; used by MIOS_ENC_Speed*
  00000000            00061 MIOS_ENC_SPEED_SLOW             EQU     0
  00000001            00062 MIOS_ENC_SPEED_NORMAL           EQU     1
  00000002            00063 MIOS_ENC_SPEED_FAST             EQU     2
                      00064 
                      00065 ;; used by MIOS_LCD_Type*
  00000000            00066 MIOS_LCD_TYPE_CLCD              EQU     0x00
  00000001            00067 MIOS_LCD_TYPE_GLCD0             EQU     0x01
  00000002            00068 MIOS_LCD_TYPE_GLCD1             EQU     0x02
  00000003            00069 MIOS_LCD_TYPE_GLCD2             EQU     0x03
  00000004            00070 MIOS_LCD_TYPE_GLCD3             EQU     0x04
  00000005            00071 MIOS_LCD_TYPE_GLCD4             EQU     0x05
  00000006            00072 MIOS_LCD_TYPE_MLCD              EQU     0x06
  00000007            00073 MIOS_LCD_TYPE_GLCD_CUSTOM       EQU     0x07
                      00074 
                      00075 ;; location of default 5x8 font for graphical displays
  00007CFC            00076 MIOS_GLCD_FONT                  EQU     0x7cfc
                      00077 
                      00078 ;; general config flags (never overwrite this flags directly!!!)
  00000000            00079 MIOS_BOX_CFG0_LCD_TYPE0         EQU 0   ; selects LCD type, bit 0
  00000001            00080 MIOS_BOX_CFG0_LCD_TYPE1         EQU 1   ; selects LCD type, bit 1
gpasm-0.14.3 #861 (Oct 28 2012) mios_wrapper\   11-16-2013  11:38:41        PAGE  3


LOC  OBJECT CODE     LINE SOURCE TEXT
  VALUE

  00000002            00081 MIOS_BOX_CFG0_LCD_TYPE2         EQU 2   ; selects LCD type, bit 2
  00000003            00082 MIOS_BOX_CFG0_USE_GLCD          EQU 3   ; if 1, graphical LCD is connected
  00000004            00083 MIOS_BOX_CFG0_MERGER            EQU 4   ; if 1, MIDI merger is enabled
  00000005            00084 MIOS_BOX_CFG0_MBLINK            EQU 5   ; if 1, MIDIbox Link is enabled
  00000006            00085 MIOS_BOX_CFG0_TO_HOST           EQU 6   ; if 1, MIDI interface will run with 38400 baud instead of 31250
  00000007            00086 MIOS_BOX_CFG0_20MHz             EQU 7   ; if 1, it is assumed that box is running with 20 MHz, else with 40 MHz
                      00087 
  00000000            00088 MIOS_BOX_CFG1_BS_A0             EQU 0   ; A0 of BankStick (never change the bit position)
  00000001            00089 MIOS_BOX_CFG1_BS_A1             EQU 1   ; A1 of BankStick (never change the bit position)
  00000002            00090 MIOS_BOX_CFG1_BS_A2             EQU 2   ; A2 of BankStick (never change the bit position)
  00000003            00091 MIOS_BOX_CFG1_BS_DIS_VERIFY     EQU 3   ; if 1, writes to the BankStick will not be verified
  00000004            00092 MIOS_BOX_CFG1_IIC_STRETCH_CLK   EQU 4   ; if 1, IIC clock stretching enabled
                      00093 
                      00094 ;; general status flags (never overwrite this flags directly!!!)
  00000000            00095 MIOS_BOX_STAT_BS_AVAILABLE      EQU 0   ; if 1, BankStick is available
  00000001            00096 MIOS_BOX_STAT_MBLINK_TUNNEL_PASS EQU 1  ; if 1, a MBLinked event will be tunnled
  00000002            00097 MIOS_BOX_STAT_SUSPEND_ALL       EQU 2   ; if 1, all system and user tasks are suspended
  00000003            00098 MIOS_BOX_STAT_SUSPEND_USER      EQU 3   ; if 1, all user tasks are suspended
  00000004            00099 MIOS_BOX_STAT_AUTOREPEAT        EQU 4   ; if 1, start the auto-repeat handler
  00000005            00100 MIOS_BOX_STAT_MLCD_TRANSFER     EQU 5   ; if 1, a transfer to the MLCD has been started
  00000006            00101 MIOS_BOX_STAT_FERR              EQU 6   ; if 1, a frame error happened during MIDI receive
                      00102 
                      00103 ;; ==========================================================================
                      00104 ;;  MIOS Special Function Registers
                      00105 ;; ==========================================================================
                      00106 
  00000000            00107 MIOS_BOX_CFG0   EQU     0x000
  00000001            00108 MIOS_BOX_CFG1   EQU     0x001
  00000002            00109 MIOS_BOX_STAT   EQU     0x002
  00000003            00110 MIOS_PARAMETER1 EQU     0x003
  00000004            00111 MIOS_PARAMETER2 EQU     0x004
  00000005            00112 MIOS_PARAMETER3 EQU     0x005
                      00113 
                      00114 ;; ==========================================================================
                      00115 ;;  temporary registers for main programs
                      00116 ;; ==========================================================================
  00000006            00117 TMP1            EQU     0x006
  00000007            00118 TMP2            EQU     0x007
  00000008            00119 TMP3            EQU     0x008
  00000009            00120 TMP4            EQU     0x009
  0000000A            00121 TMP5            EQU     0x00a
                      00122 
                      00123 ;; ==========================================================================
                      00124 ;;  temporary registers for IRQs
                      00125 ;; ==========================================================================
  0000000B            00126 IRQ_TMP1        EQU     0x00b
  0000000C            00127 IRQ_TMP2        EQU     0x00c
  0000000D            00128 IRQ_TMP3        EQU     0x00d
  0000000E            00129 IRQ_TMP4        EQU     0x00e
  0000000F            00130 IRQ_TMP5        EQU     0x00f
                      00131 
                      00132 ;; ==========================================================================
                      00133 ;;  free memory space for user application:
gpasm-0.14.3 #861 (Oct 28 2012) mios_wrapper\   11-16-2013  11:38:41        PAGE  4


LOC  OBJECT CODE     LINE SOURCE TEXT
  VALUE

                      00134 ;; ==========================================================================
                      00135         ;; 0x010-0x37f
                      00136 
                      00137 ;; ==========================================================================
                      00138 ;;  MIOS System Registers -- not defined here -- 
                      00139 ;;  never use these memory locations!
                      00140 ;; ==========================================================================
                      00141         ;; 0x380-0x6ff
                      00142 
                      00143 ;; ==========================================================================
                      00144 ;;  MIOS System Registers for custom LCD driver
                      00145 ;; ==========================================================================
  00000570            00146 MIOS_GLCD_BUFFER        EQU     0x570   ; note: the buffer must be located at ...0-...7
  00000578            00147 MIOS_LCD_OPTION1        EQU     0x578   ; contains the first LCD option given by MIOS_LCD_TypeSet
  00000579            00148 MIOS_LCD_OPTION2        EQU     0x579   ; contains the second LCD option given by MIOS_LCD_TypeSet
  0000057A            00149 MIOS_LCD_CURSOR_POS     EQU     0x57a   ; the current cursor pos of characters (GLCD: multiplied by width)
  0000057B            00150 MIOS_GLCD_GCURSOR_X     EQU     0x57b   ; for GLCDs: the current X position of graphical cursor
  0000057C            00151 MIOS_GLCD_GCURSOR_Y     EQU     0x57c   ; for GLCDs: the current Y position of graphical cursor
  0000057D            00152 MIOS_GLCD_FONT_WIDTH    EQU     0x57d   ; for GLCDs: the fontwidth given by MIOS_GLCD_FontInit
  0000057E            00153 MIOS_GLCD_FONT_HEIGHT   EQU     0x57e   ; for GLCDs: the fontheight given by MIOS_GLCD_FontInit
  0000057F            00154 MIOS_GLCD_FONT_X0       EQU     0x57f   ; for GLCDs: the first byte within a char entry
  00000580            00155 MIOS_GLCD_FONT_OFFSET   EQU     0x580   ; for GLCDs: the byte offset between the characters
  00000581            00156 MIOS_GLCD_FONT_PTRL     EQU     0x581   ; for GLCDs: pointer to the character table, low-byte
  00000582            00157 MIOS_GLCD_FONT_PTRH     EQU     0x582   ; for GLCDs: pointer to the character table, high-byte
  00000583            00158 MIOS_LCD_TIMEOUT0       EQU     0x583   ; can be used for timeout loops
  00000584            00159 MIOS_LCD_TIMEOUT1       EQU     0x584   ; can be used for timeout loops
  00000585            00160 MIOS_GLCD_TMP1          EQU     0x585   ; can be used as temporary buffer
  00000586            00161 MIOS_GLCD_TMP2          EQU     0x586   ; can be used as temporary buffer
  00000587            00162 MIOS_GLCD_TMP3          EQU     0x587   ; can be used as temporary buffer
  00000588            00163 MIOS_GLCD_TMP4          EQU     0x588   ; can be used as temporary buffer
  00000589            00164 MIOS_LCD_Y0_OFFSET      EQU     0x589   ; Y0 offset of LCD
  0000058A            00165 MIOS_LCD_Y1_OFFSET      EQU     0x58a   ; Y1 offset of LCD
  0000058B            00166 MIOS_LCD_Y2_OFFSET      EQU     0x58b   ; Y2 offset of LCD
  0000058C            00167 MIOS_LCD_Y3_OFFSET      EQU     0x58c   ; Y3 offset of LCD
  0000058D            00168 MIOS_LCD_CURSOR_POS_REAL EQU    0x58d   ; unmapped cursor position which has been set with MIOS_LCD_CursorSet
                      00023 
                      00024 ;; ---[ vectors to MIOS functions (never change!) ]---
                      00001 #include "mios_vectors.inc"
  00002C00            00002 MIOS_MIDI_BeginStream                   EQU     0x2c00
  00002C04            00003 MIOS_MIDI_DeviceIDAutoSet               EQU     0x2c04
  00002C08            00004 MIOS_MIDI_DeviceIDGet                   EQU     0x2c08
  00002C0C            00005 MIOS_MIDI_DeviceIDSet                   EQU     0x2c0c
  00002C10            00006 MIOS_MIDI_EndStream                     EQU     0x2c10
  00002C14            00007 MIOS_MIDI_Init                          EQU     0x2c14
  00002C18            00008 MIOS_MIDI_InterfaceAutoSet              EQU     0x2c18
  00002C1C            00009 MIOS_MIDI_InterfaceGet                  EQU     0x2c1c
  00002C20            00010 MIOS_MIDI_InterfaceSet                  EQU     0x2c20
  00002C24            00011 MIOS_MIDI_MergerGet                     EQU     0x2c24
  00002C28            00012 MIOS_MIDI_MergerSet                     EQU     0x2c28
  00002C2C            00013 MIOS_MIDI_RxBufferFree                  EQU     0x2c2c
  00002C30            00014 MIOS_MIDI_RxBufferGet                   EQU     0x2c30
  00002C34            00015 MIOS_MIDI_RxBufferPut                   EQU     0x2c34
  00002C38            00016 MIOS_MIDI_RxBufferUsed                  EQU     0x2c38
gpasm-0.14.3 #861 (Oct 28 2012) mios_wrapper\   11-16-2013  11:38:41        PAGE  5


LOC  OBJECT CODE     LINE SOURCE TEXT
  VALUE

  00002C3C            00017 MIOS_MIDI_TxBufferFlush                 EQU     0x2c3c
  00002C40            00018 MIOS_MIDI_TxBufferFree                  EQU     0x2c40
  00002C44            00019 MIOS_MIDI_TxBufferGet                   EQU     0x2c44
  00002C48            00020 MIOS_MIDI_TxBufferPut                   EQU     0x2c48
  00002C4C            00021 MIOS_MIDI_TxBufferUsed                  EQU     0x2c4c
  00002C50            00022 MIOS_MPROC_MergerDisable                EQU     0x2c50
  00002C54            00023 MIOS_MPROC_MergerEnable                 EQU     0x2c54
  00002C58            00024 MIOS_MPROC_MergerGet                    EQU     0x2c58
  00002C5C            00025 MIOS_AIN_DeadbandGet                    EQU     0x2c5c
  00002C60            00026 MIOS_AIN_DeadbandSet                    EQU     0x2c60
  00002C64            00027 MIOS_AIN_Muxed                          EQU     0x2c64
  00002C68            00028 MIOS_AIN_NumberGet                      EQU     0x2c68
  00002C6C            00029 MIOS_AIN_NumberSet                      EQU     0x2c6c
  00002C70            00030 MIOS_AIN_Pin7bitGet                     EQU     0x2c70
  00002C74            00031 MIOS_AIN_PinGet                         EQU     0x2c74
  00002C78            00032 MIOS_AIN_PinLSBGet                      EQU     0x2c78
  00002C7C            00033 MIOS_AIN_PinMSBGet                      EQU     0x2c7c
  00002C80            00034 MIOS_AIN_UnMuxed                        EQU     0x2c80
  00002C84            00035 MIOS_MF_PWM_DutyCycleDownGet            EQU     0x2c84
  00002C88            00036 MIOS_MF_PWM_DutyCycleDownSet            EQU     0x2c88
  00002C8C            00037 MIOS_MF_PWM_DutyCycleUpGet              EQU     0x2c8c
  00002C90            00038 MIOS_MF_PWM_DutyCycleUpSet              EQU     0x2c90
  00002C94            00039 MIOS_MF_DeadbandGet                     EQU     0x2c94
  00002C98            00040 MIOS_MF_DeadbandSet                     EQU     0x2c98
  00002C9C            00041 MIOS_MF_Disable                         EQU     0x2c9c
  00002CA0            00042 MIOS_MF_Enable                          EQU     0x2ca0
  00002CA4            00043 MIOS_MF_FaderMove                       EQU     0x2ca4
  00002CA8            00044 MIOS_MF_SuspendDisable                  EQU     0x2ca8
  00002CAC            00045 MIOS_MF_SuspendEnable                   EQU     0x2cac
  00002CB0            00046 MIOS_MF_SuspendGet                      EQU     0x2cb0
  00002CB4            00047 MIOS_DIN_PinGet                         EQU     0x2cb4
  00002CB8            00048 MIOS_DIN_SRGet                          EQU     0x2cb8
  00002CBC            00049 MIOS_DOUT_PinGet                        EQU     0x2cbc
  00002CC0            00050 MIOS_DOUT_PinSet                        EQU     0x2cc0
  00002CC4            00051 MIOS_DOUT_PinSet0                       EQU     0x2cc4
  00002CC8            00052 MIOS_DOUT_PinSet1                       EQU     0x2cc8
  00002CCC            00053 MIOS_DOUT_SRGet                         EQU     0x2ccc
  00002CD0            00054 MIOS_DOUT_SRSet                         EQU     0x2cd0
  00002CD4            00055 MIOS_ENC_Abs7bitAdd                     EQU     0x2cd4
  00002CD8            00056 MIOS_ENC_Abs7bitGet                     EQU     0x2cd8
  00002CDC            00057 MIOS_ENC_Abs7bitSet                     EQU     0x2cdc
  00002CE0            00058 MIOS_ENC_NumberGet                      EQU     0x2ce0
  00002CE4            00059 MIOS_ENC_SpeedGet                       EQU     0x2ce4
  00002CE8            00060 MIOS_ENC_SpeedSet                       EQU     0x2ce8
  00002CEC            00061 MIOS_SRIO_NumberGet                     EQU     0x2cec
  00002CF0            00062 MIOS_SRIO_NumberSet                     EQU     0x2cf0
  00002CF4            00063 MIOS_SRIO_TS_SensitivityGet             EQU     0x2cf4
  00002CF8            00064 MIOS_SRIO_TS_SensitivitySet             EQU     0x2cf8
  00002CFC            00065 MIOS_SRIO_UpdateFrqGet                  EQU     0x2cfc
  00002D00            00066 MIOS_SRIO_UpdateFrqSet                  EQU     0x2d00
  00002D04            00067 MIOS_LCD_Clear                          EQU     0x2d04
  00002D08            00068 MIOS_LCD_Cmd                            EQU     0x2d08
  00002D0C            00069 MIOS_LCD_CursorGet                      EQU     0x2d0c
gpasm-0.14.3 #861 (Oct 28 2012) mios_wrapper\   11-16-2013  11:38:41        PAGE  6


LOC  OBJECT CODE     LINE SOURCE TEXT
  VALUE

  00002D10            00070 MIOS_LCD_CursorSet                      EQU     0x2d10
  00002D14            00071 MIOS_LCD_Data                           EQU     0x2d14
  00002D18            00072 MIOS_LCD_Init                           EQU     0x2d18
  00002D1C            00073 MIOS_LCD_PrintBCD1                      EQU     0x2d1c
  00002D20            00074 MIOS_LCD_PrintBCD2                      EQU     0x2d20
  00002D24            00075 MIOS_LCD_PrintBCD3                      EQU     0x2d24
  00002D28            00076 MIOS_LCD_PrintChar                      EQU     0x2d28
  00002D2C            00077 MIOS_LCD_PrintHex1                      EQU     0x2d2c
  00002D30            00078 MIOS_LCD_PrintHex2                      EQU     0x2d30
  00002D34            00079 MIOS_LCD_PrintMessage                   EQU     0x2d34
  00002D38            00080 MIOS_LCD_PrintPreconfString             EQU     0x2d38
  00002D3C            00081 MIOS_LCD_PrintString                    EQU     0x2d3c
  00002D40            00082 MIOS_LCD_TypeAutoSet                    EQU     0x2d40
  00002D44            00083 MIOS_LCD_TypeGet                        EQU     0x2d44
  00002D48            00084 MIOS_LCD_TypeSet                        EQU     0x2d48
  00002D4C            00085 MIOS_LCD_YAddressGet                    EQU     0x2d4c
  00002D50            00086 MIOS_LCD_YAddressSet                    EQU     0x2d50
  00002D54            00087 MIOS_GLCD_FontInit                      EQU     0x2d54
  00002D58            00088 MIOS_GLCD_GCursorGet                    EQU     0x2d58
  00002D5C            00089 MIOS_GLCD_GCursorSet                    EQU     0x2d5c
  00002D60            00090 MIOS_EEPROM_Read                        EQU     0x2d60
  00002D64            00091 MIOS_EEPROM_Write                       EQU     0x2d64
  00002D68            00092 MIOS_FLASH_Read                         EQU     0x2d68
  00002D6C            00093 MIOS_FLASH_Write                        EQU     0x2d6c
  00002D70            00094 MIOS_BANKSTICK_Read                     EQU     0x2d70
  00002D74            00095 MIOS_BANKSTICK_Write                    EQU     0x2d74
  00002D78            00096 MIOS_TIMER_Init                         EQU     0x2d78
  00002D7C            00097 MIOS_TIMER_Start                        EQU     0x2d7c
  00002D80            00098 MIOS_TIMER_Stop                         EQU     0x2d80
  00002D84            00099 MIOS_HLP_AddressFromTable               EQU     0x2d84
  00002D88            00100 MIOS_HLP_GetBitANDMask                  EQU     0x2d88
  00002D8C            00101 MIOS_HLP_GetBitORMask                   EQU     0x2d8c
  00002D90            00102 MIOS_HLP_GetIndex_2bytes                EQU     0x2d90
  00002D94            00103 MIOS_HLP_GetIndex_4bytes                EQU     0x2d94
  00002D98            00104 MIOS_HLP_IndirectJump                   EQU     0x2d98
  00002D9C            00105 MIOS_Delay                              EQU     0x2d9c
  00002DA0            00106 MIOS_GPCounterGet                       EQU     0x2da0
  00002DA4            00107 MIOS_Reset                              EQU     0x2da4
  00002DA8            00108 MIOS_SystemResume                       EQU     0x2da8
  00002DAC            00109 MIOS_SystemSuspend                      EQU     0x2dac
  00002DB0            00110 MIOS_UserResume                         EQU     0x2db0
  00002DB4            00111 MIOS_UserSuspend                        EQU     0x2db4
  00002DB8            00112 MIOS_HLP_16bitAddSaturate               EQU     0x2db8
  00002DBC            00113 MIOS_DIN_PinAutoRepeatEnable            EQU     0x2dbc
  00002DC0            00114 MIOS_DIN_PinAutoRepeatDisable           EQU     0x2dc0
  00002DC4            00115 MIOS_DIN_PinAutoRepeatGet               EQU     0x2dc4
  00002DC8            00116 MIOS_CLCD_SpecialCharInit               EQU     0x2dc8
  00002DCC            00117 MIOS_CLCD_SpecialCharsInit              EQU     0x2dcc
  00002DD0            00118 MIOS_AIN_DynamicPrioSet                 EQU     0x2dd0
  00002DD4            00119 MIOS_AIN_DynamicPrioGet                 EQU     0x2dd4
  00002DD8            00120 MIOS_AIN_LastPinsGet                    EQU     0x2dd8
  00002DDC            00121 MIOS_BANKSTICK_CtrlSet                  EQU     0x2ddc
  00002DE0            00122 MIOS_BANKSTICK_CtrlGet                  EQU     0x2de0
gpasm-0.14.3 #861 (Oct 28 2012) mios_wrapper\   11-16-2013  11:38:41        PAGE  7


LOC  OBJECT CODE     LINE SOURCE TEXT
  VALUE

  00002DE4            00123 MIOS_BANKSTICK_WritePage                EQU     0x2de4
  00002DE8            00124 MIOS_HLP_Dec2BCD                        EQU     0x2de8
  00002DEC            00125 MIOS_LCD_PrintBCD4                      EQU     0x2dec
  00002DF0            00126 MIOS_LCD_PrintBCD5                      EQU     0x2df0
  00002DF4            00127 MIOS_LCD_MessageStart                   EQU     0x2df4
  00002DF8            00128 MIOS_LCD_MessageStop                    EQU     0x2df8
  00002DFC            00129 MIOS_MF_PWM_PeriodGet                   EQU     0x2dfc
  00002E00            00130 MIOS_MF_PWM_PeriodSet                   EQU     0x2e00
  00002E04            00131 MIOS_IIC_Start                          EQU     0x2e04
  00002E08            00132 MIOS_IIC_Stop                           EQU     0x2e08
  00002E0C            00133 MIOS_IIC_ByteSend                       EQU     0x2e0c
  00002E10            00134 MIOS_IIC_ByteReceive                    EQU     0x2e10
  00002E14            00135 MIOS_IIC_AckSend                        EQU     0x2e14
  00002E18            00136 MIOS_IIC_NakSend                        EQU     0x2e18
  00002E1C            00137 MIOS_IIC_CtrlSet                        EQU     0x2e1c
  00002E20            00138 MIOS_IIC_CtrlGet                        EQU     0x2e20
  00002E24            00139 MIOS_SRIO_DebounceSet                   EQU     0x2e24
  00002E28            00140 MIOS_SRIO_DebounceGet                   EQU     0x2e28
  00002E2C            00141 MIOS_MF_TouchDetectionReset             EQU     0x2e2c
  00002E30            00142 MIOS_BANKSTICK_ReadPage                 EQU     0x2e30
  00002E34            00143 MIOS_EEPROM_ReadPage                    EQU     0x2e34
  00002E38            00144 MIOS_EEPROM_WritePage                   EQU     0x2e38
  00002E3C            00145 MIOS_TIMER_ReInit                       EQU     0x2e3c
  00002E40            00146 MIOS_RESERVED_144                       EQU     0x2e40
  00002E44            00147 MIOS_RESERVED_145                       EQU     0x2e44
  00002E48            00148 MIOS_RESERVED_146                       EQU     0x2e48
  00002E4C            00149 MIOS_RESERVED_147                       EQU     0x2e4c
  00002E50            00150 MIOS_RESERVED_148                       EQU     0x2e50
  00002E54            00151 MIOS_RESERVED_149                       EQU     0x2e54
  00002E58            00152 MIOS_RESERVED_150                       EQU     0x2e58
  00002E5C            00153 MIOS_RESERVED_151                       EQU     0x2e5c
  00002E60            00154 MIOS_RESERVED_152                       EQU     0x2e60
  00002E64            00155 MIOS_RESERVED_153                       EQU     0x2e64
  00002E68            00156 MIOS_RESERVED_154                       EQU     0x2e68
  00002E6C            00157 MIOS_RESERVED_155                       EQU     0x2e6c
  00002E70            00158 MIOS_RESERVED_156                       EQU     0x2e70
  00002E74            00159 MIOS_RESERVED_157                       EQU     0x2e74
  00002E78            00160 MIOS_RESERVED_158                       EQU     0x2e78
  00002E7C            00161 MIOS_RESERVED_159                       EQU     0x2e7c
  00002E80            00162 MIOS_RESERVED_160                       EQU     0x2e80
  00002E84            00163 MIOS_RESERVED_161                       EQU     0x2e84
  00002E88            00164 MIOS_RESERVED_162                       EQU     0x2e88
  00002E8C            00165 MIOS_RESERVED_163                       EQU     0x2e8c
  00002E90            00166 MIOS_RESERVED_164                       EQU     0x2e90
  00002E94            00167 MIOS_RESERVED_165                       EQU     0x2e94
  00002E98            00168 MIOS_RESERVED_166                       EQU     0x2e98
  00002E9C            00169 MIOS_RESERVED_167                       EQU     0x2e9c
  00002EA0            00170 MIOS_RESERVED_168                       EQU     0x2ea0
  00002EA4            00171 MIOS_RESERVED_169                       EQU     0x2ea4
  00002EA8            00172 MIOS_RESERVED_170                       EQU     0x2ea8
  00002EAC            00173 MIOS_RESERVED_171                       EQU     0x2eac
  00002EB0            00174 MIOS_RESERVED_172                       EQU     0x2eb0
  00002EB4            00175 MIOS_RESERVED_173                       EQU     0x2eb4
gpasm-0.14.3 #861 (Oct 28 2012) mios_wrapper\   11-16-2013  11:38:41        PAGE  8


LOC  OBJECT CODE     LINE SOURCE TEXT
  VALUE

  00002EB8            00176 MIOS_RESERVED_174                       EQU     0x2eb8
  00002EBC            00177 MIOS_RESERVED_175                       EQU     0x2ebc
  00002EC0            00178 MIOS_RESERVED_176                       EQU     0x2ec0
  00002EC4            00179 MIOS_RESERVED_177                       EQU     0x2ec4
  00002EC8            00180 MIOS_RESERVED_178                       EQU     0x2ec8
  00002ECC            00181 MIOS_RESERVED_179                       EQU     0x2ecc
  00002ED0            00182 MIOS_RESERVED_180                       EQU     0x2ed0
  00002ED4            00183 MIOS_RESERVED_181                       EQU     0x2ed4
  00002ED8            00184 MIOS_RESERVED_182                       EQU     0x2ed8
  00002EDC            00185 MIOS_RESERVED_183                       EQU     0x2edc
  00002EE0            00186 MIOS_RESERVED_184                       EQU     0x2ee0
  00002EE4            00187 MIOS_RESERVED_185                       EQU     0x2ee4
  00002EE8            00188 MIOS_RESERVED_186                       EQU     0x2ee8
  00002EEC            00189 MIOS_RESERVED_187                       EQU     0x2eec
  00002EF0            00190 MIOS_RESERVED_188                       EQU     0x2ef0
  00002EF4            00191 MIOS_RESERVED_189                       EQU     0x2ef4
  00002EF8            00192 MIOS_RESERVED_190                       EQU     0x2ef8
  00002EFC            00193 MIOS_RESERVED_191                       EQU     0x2efc
  00002F00            00194 MIOS_RESERVED_192                       EQU     0x2f00
  00002F04            00195 MIOS_RESERVED_193                       EQU     0x2f04
  00002F08            00196 MIOS_RESERVED_194                       EQU     0x2f08
  00002F0C            00197 MIOS_RESERVED_195                       EQU     0x2f0c
  00002F10            00198 MIOS_RESERVED_196                       EQU     0x2f10
  00002F14            00199 MIOS_RESERVED_197                       EQU     0x2f14
  00002F18            00200 MIOS_RESERVED_198                       EQU     0x2f18
  00002F1C            00201 MIOS_RESERVED_199                       EQU     0x2f1c
  00002F20            00202 MIOS_RESERVED_200                       EQU     0x2f20
  00002F24            00203 MIOS_RESERVED_201                       EQU     0x2f24
  00002F28            00204 MIOS_RESERVED_202                       EQU     0x2f28
  00002F2C            00205 MIOS_RESERVED_203                       EQU     0x2f2c
  00002F30            00206 MIOS_RESERVED_204                       EQU     0x2f30
  00002F34            00207 MIOS_RESERVED_205                       EQU     0x2f34
  00002F38            00208 MIOS_RESERVED_206                       EQU     0x2f38
  00002F3C            00209 MIOS_RESERVED_207                       EQU     0x2f3c
  00002F40            00210 MIOS_RESERVED_208                       EQU     0x2f40
  00002F44            00211 MIOS_RESERVED_209                       EQU     0x2f44
  00002F48            00212 MIOS_RESERVED_210                       EQU     0x2f48
  00002F4C            00213 MIOS_RESERVED_211                       EQU     0x2f4c
  00002F50            00214 MIOS_RESERVED_212                       EQU     0x2f50
  00002F54            00215 MIOS_RESERVED_213                       EQU     0x2f54
  00002F58            00216 MIOS_RESERVED_214                       EQU     0x2f58
  00002F5C            00217 MIOS_RESERVED_215                       EQU     0x2f5c
  00002F60            00218 MIOS_RESERVED_216                       EQU     0x2f60
  00002F64            00219 MIOS_RESERVED_217                       EQU     0x2f64
  00002F68            00220 MIOS_RESERVED_218                       EQU     0x2f68
  00002F6C            00221 MIOS_RESERVED_219                       EQU     0x2f6c
  00002F70            00222 MIOS_RESERVED_220                       EQU     0x2f70
  00002F74            00223 MIOS_RESERVED_221                       EQU     0x2f74
  00002F78            00224 MIOS_RESERVED_222                       EQU     0x2f78
  00002F7C            00225 MIOS_RESERVED_223                       EQU     0x2f7c
  00002F80            00226 MIOS_RESERVED_224                       EQU     0x2f80
  00002F84            00227 MIOS_RESERVED_225                       EQU     0x2f84
  00002F88            00228 MIOS_RESERVED_226                       EQU     0x2f88
gpasm-0.14.3 #861 (Oct 28 2012) mios_wrapper\   11-16-2013  11:38:41        PAGE  9


LOC  OBJECT CODE     LINE SOURCE TEXT
  VALUE

  00002F8C            00229 MIOS_RESERVED_227                       EQU     0x2f8c
  00002F90            00230 MIOS_RESERVED_228                       EQU     0x2f90
  00002F94            00231 MIOS_RESERVED_229                       EQU     0x2f94
  00002F98            00232 MIOS_RESERVED_230                       EQU     0x2f98
  00002F9C            00233 MIOS_RESERVED_231                       EQU     0x2f9c
  00002FA0            00234 MIOS_RESERVED_232                       EQU     0x2fa0
  00002FA4            00235 MIOS_RESERVED_233                       EQU     0x2fa4
  00002FA8            00236 MIOS_RESERVED_234                       EQU     0x2fa8
  00002FAC            00237 MIOS_RESERVED_235                       EQU     0x2fac
  00002FB0            00238 MIOS_RESERVED_236                       EQU     0x2fb0
  00002FB4            00239 MIOS_RESERVED_237                       EQU     0x2fb4
  00002FB8            00240 MIOS_RESERVED_238                       EQU     0x2fb8
  00002FBC            00241 MIOS_RESERVED_239                       EQU     0x2fbc
  00002FC0            00242 MIOS_RESERVED_240                       EQU     0x2fc0
  00002FC4            00243 MIOS_RESERVED_241                       EQU     0x2fc4
  00002FC8            00244 MIOS_RESERVED_242                       EQU     0x2fc8
  00002FCC            00245 MIOS_RESERVED_243                       EQU     0x2fcc
  00002FD0            00246 MIOS_RESERVED_244                       EQU     0x2fd0
  00002FD4            00247 MIOS_RESERVED_245                       EQU     0x2fd4
  00002FD8            00248 MIOS_RESERVED_246                       EQU     0x2fd8
  00002FDC            00249 MIOS_RESERVED_247                       EQU     0x2fdc
  00002FE0            00250 MIOS_RESERVED_248                       EQU     0x2fe0
  00002FE4            00251 MIOS_RESERVED_249                       EQU     0x2fe4
  00002FE8            00252 MIOS_RESERVED_250                       EQU     0x2fe8
  00002FEC            00253 MIOS_RESERVED_251                       EQU     0x2fec
  00002FF0            00254 MIOS_RESERVED_252                       EQU     0x2ff0
  00002FF4            00255 MIOS_RESERVED_253                       EQU     0x2ff4
  00002FF8            00256 MIOS_RESERVED_254                       EQU     0x2ff8
  00002FFC            00257 MIOS_RESERVED_255                       EQU     0x2ffc
                      00025 
                      00026 ;; ---[ user hooks (never change!) ]---
                      00001 #include "user_vectors.inc"
                      00002 ;
                      00003 ; User vectortable - contains user hooks to MIOS
                      00004 ;
                      00005 ; ==========================================================================
                      00006 ;
                      00007 ;  Copyright 1998-2006 Thorsten Klose (tk@midibox.org)
                      00008 ;  Licensed for personal non-commercial use only.
                      00009 ;  All other rights reserved.
                      00010 ; 
                      00011 ; ==========================================================================
                      00012 
                      00013         ;; never change the origin or the order of entries!
                      00014         org     0x3000
003000                00015 _User_Init
003000 EF00 F???      00016         goto    USER_Init
003004                00017 _USER_Tick
003004 EF00 F???      00018         goto    USER_Tick
003008                00019 _USER_Timer
003008 EF00 F???      00020         goto    USER_Timer
00300C                00021 _USER_MPROC_DebugTrigger
00300C EF00 F???      00022         goto    USER_MPROC_DebugTrigger
gpasm-0.14.3 #861 (Oct 28 2012) mios_wrapper\   11-16-2013  11:38:41        PAGE 10


LOC  OBJECT CODE     LINE SOURCE TEXT
  VALUE

003010                00023 _USER_DISPLAY_Init
003010 EF00 F???      00024         goto    USER_DISPLAY_Init
003014                00025 _USER_DISPLAY_Tick
003014 EF00 F???      00026         goto    USER_DISPLAY_Tick
003018                00027 _USER_SR_Service_Prepare
003018 EF00 F???      00028         goto    USER_SR_Service_Prepare
00301C                00029 _USER_SR_Service_Finish
00301C EF00 F???      00030         goto    USER_SR_Service_Finish
003020                00031 _USER_DIN_NotifyToggle
003020 EF00 F???      00032         goto    USER_DIN_NotifyToggle
003024                00033 _USER_ENC_NotifyChange
003024 EF00 F???      00034         goto    USER_ENC_NotifyChange
003028                00035 _USER_AIN_NotifyChange
003028 EF00 F???      00036         goto    USER_AIN_NotifyChange
00302C                00037 _USER_MPROC_NotifyReceivedByte
00302C EF00 F???      00038         goto    USER_MPROC_NotifyReceivedByte
003030                00039 _USER_MPROC_NotifyTimeout
003030 EF00 F???      00040         goto    USER_MPROC_NotifyTimeout
003034                00041 _USER_MPROC_NotifyReceivedEvent
003034 EF00 F???      00042         goto    USER_MPROC_NotifyReceivedEvent
003038                00043 _USER_MPROC_NotifyFoundEvent
003038 EF00 F???      00044         goto    USER_MPROC_NotifyFoundEvent
00303C                00045 _USER_LCD_Init
00303C EF00 F???      00046         goto    USER_LCD_Init
003040                00047 _USER_LCD_Clear
003040 EF00 F???      00048         goto    USER_LCD_Clear
003044                00049 _USER_LCD_CursorSet
003044 EF00 F???      00050         goto    USER_LCD_CursorSet
003048                00051 _USER_LCD_PrintChar
003048 EF00 F???      00052         goto    USER_LCD_PrintChar
00304C                00053 _USER_MIDI_NotifyRx
00304C EF00 F???      00054         goto    USER_MIDI_NotifyRx
003050                00055 _USER_MIDI_NotifyTx
003050 EF00 F???      00056         goto    USER_MIDI_NotifyTx
003054                00057 _USER_LCD_Data
003054 EF00 F???      00058         goto    USER_LCD_Data
003058                00059 _USER_LCD_Cmd
003058 EF00 F???      00060         goto    USER_LCD_Cmd
00305C                00061 _USER_LCD_SpecialCharInit
00305C EF00 F???      00062         goto    USER_LCD_SpecialCharInit
003060                00063 USER_RESERVED_25
003060 0012           00064         return
003062 0000           00065         nop
003064                00066 USER_RESERVED_26
003064 0012           00067         return
003066 0000           00068         nop
003068                00069 USER_RESERVED_27
003068 0012           00070         return
00306A 0000           00071         nop
00306C                00072 USER_RESERVED_28
00306C 0012           00073         return
00306E 0000           00074         nop
003070                00075 USER_RESERVED_29
gpasm-0.14.3 #861 (Oct 28 2012) mios_wrapper\   11-16-2013  11:38:41        PAGE 11


LOC  OBJECT CODE     LINE SOURCE TEXT
  VALUE

003070 0012           00076         return
003072 0000           00077         nop
003074                00078 USER_RESERVED_30
003074 0012           00079         return
003076 0000           00080         nop
003078                00081 USER_RESERVED_31
003078 0012           00082         return
00307A 0000           00083         nop
00307C                00084 USER_RESERVED_32
00307C 0012           00085         return
00307E 0000           00086         nop
                      00027 
                      00028 ;; ==========================================================================
                      00029 ;;  General Application Settings
                      00030 ;; ==========================================================================
                      00031 
                      00032 ;; ---[ configuration table for MIDI processor and rotary encoders ]---
                      00001 #include "mios_tables.inc"
                      00002 ;
                      00003 ; Configuration Tables for MIOS Application
                      00004 ;
                      00005 ; ==========================================================================
                      00006 ;
                      00007 ;  Copyright 1998-2006 Thorsten Klose (tk@midibox.org)
                      00008 ;  Licensed for personal non-commercial use only.
                      00009 ;  All other rights reserved.
                      00010 ; 
                      00011 ; ==========================================================================
                      00012 
                      00013         org     0x3080          ; never change the origin!
                      00014 
                      00015 ;; --------------------------------------------------------------------------
                      00016 ;; The MIDI Trigger table maps incoming MIDI events to control elements
                      00017 ;; (pots/faders, encoders, buttons, LEDs, ...)
                      00018 ;; 
                      00019 ;; After the MIOS MIDI processor (MPROC) has received a complete event, it
                      00020 ;; searches in this table for a matching entry and calls USER_MPROC_NotifyFoundEvent
                      00021 ;; with the table index in WREG and the MIDI event in MIOS_PARAMETER[123]
                      00022 ;; 
                      00023 ;; Note also that the MIDI processor stops scanning the table after
                      00024 ;; the first MT_EOT entry
                      00025 ;; 
                      00026 ;; Note2: never change the origin (memory location) of this table!
                      00027 ;; 
                      00028 ;; Optionally this table can also be used to define events, which should be
                      00029 ;; transmitted (Example: see example_ain64_din128_dout128), so that incoming
                      00030 ;; and outgoing events are located at one place
                      00031 ;; 
                      00032 ;; The table *must* contain 256 entries. Unused entries should be filled with
                      00033 ;; MT_EOT.
                      00034 ;; --------------------------------------------------------------------------
                      00035 
                      00036         ;; MIDI Trigger entry structure
gpasm-0.14.3 #861 (Oct 28 2012) mios_wrapper\   11-16-2013  11:38:41        PAGE 12


LOC  OBJECT CODE     LINE SOURCE TEXT
  VALUE

                      00037 MT_ENTRY MACRO event_0, event_1
                      00038         dw      (event_1 << 8) | event_0
                      00039         ENDM
                      00040 
                      00041 MT_EOT  MACRO
                      00042         dw      0xffff
                      00043         ENDM
                      00044 
                      00045 
                      00046         global  _MIOS_MPROC_EVENT_TABLE
                      00047 
003080                00048 _MIOS_MPROC_EVENT_TABLE
003080                00049 MIOS_MPROC_EVENT_TABLE
                      00050         ;; entry 0x00-0x0f
                      00051         MT_EOT
003080 FFFF               M         dw      0xffff
                      00052         MT_EOT
003082 FFFF               M         dw      0xffff
                      00053         MT_EOT
003084 FFFF               M         dw      0xffff
                      00054         MT_EOT
003086 FFFF               M         dw      0xffff
                      00055         MT_EOT
003088 FFFF               M         dw      0xffff
                      00056         MT_EOT
00308A FFFF               M         dw      0xffff
                      00057         MT_EOT
00308C FFFF               M         dw      0xffff
                      00058         MT_EOT
00308E FFFF               M         dw      0xffff
                      00059         MT_EOT
003090 FFFF               M         dw      0xffff
                      00060         MT_EOT
003092 FFFF               M         dw      0xffff
                      00061         MT_EOT
003094 FFFF               M         dw      0xffff
                      00062         MT_EOT
003096 FFFF               M         dw      0xffff
                      00063         MT_EOT
003098 FFFF               M         dw      0xffff
                      00064         MT_EOT
00309A FFFF               M         dw      0xffff
                      00065         MT_EOT
00309C FFFF               M         dw      0xffff
                      00066         MT_EOT
00309E FFFF               M         dw      0xffff
                      00067 
                      00068         ;; entry 0x10-0x1f      
                      00069         MT_EOT
0030A0 FFFF               M         dw      0xffff
                      00070         MT_EOT
0030A2 FFFF               M         dw      0xffff
                      00071         MT_EOT
gpasm-0.14.3 #861 (Oct 28 2012) mios_wrapper\   11-16-2013  11:38:41        PAGE 13


LOC  OBJECT CODE     LINE SOURCE TEXT
  VALUE

0030A4 FFFF               M         dw      0xffff
                      00072         MT_EOT
0030A6 FFFF               M         dw      0xffff
                      00073         MT_EOT
0030A8 FFFF               M         dw      0xffff
                      00074         MT_EOT
0030AA FFFF               M         dw      0xffff
                      00075         MT_EOT
0030AC FFFF               M         dw      0xffff
                      00076         MT_EOT
0030AE FFFF               M         dw      0xffff
                      00077         MT_EOT
0030B0 FFFF               M         dw      0xffff
                      00078         MT_EOT
0030B2 FFFF               M         dw      0xffff
                      00079         MT_EOT
0030B4 FFFF               M         dw      0xffff
                      00080         MT_EOT
0030B6 FFFF               M         dw      0xffff
                      00081         MT_EOT
0030B8 FFFF               M         dw      0xffff
                      00082         MT_EOT
0030BA FFFF               M         dw      0xffff
                      00083         MT_EOT
0030BC FFFF               M         dw      0xffff
                      00084         MT_EOT
0030BE FFFF               M         dw      0xffff
                      00085 
                      00086         ;; entry 0x20-0x2f
                      00087         MT_EOT
0030C0 FFFF               M         dw      0xffff
                      00088         MT_EOT
0030C2 FFFF               M         dw      0xffff
                      00089         MT_EOT
0030C4 FFFF               M         dw      0xffff
                      00090         MT_EOT
0030C6 FFFF               M         dw      0xffff
                      00091         MT_EOT
0030C8 FFFF               M         dw      0xffff
                      00092         MT_EOT
0030CA FFFF               M         dw      0xffff
                      00093         MT_EOT
0030CC FFFF               M         dw      0xffff
                      00094         MT_EOT
0030CE FFFF               M         dw      0xffff
                      00095         MT_EOT
0030D0 FFFF               M         dw      0xffff
                      00096         MT_EOT
0030D2 FFFF               M         dw      0xffff
                      00097         MT_EOT
0030D4 FFFF               M         dw      0xffff
                      00098         MT_EOT
0030D6 FFFF               M         dw      0xffff
gpasm-0.14.3 #861 (Oct 28 2012) mios_wrapper\   11-16-2013  11:38:41        PAGE 14


LOC  OBJECT CODE     LINE SOURCE TEXT
  VALUE

                      00099         MT_EOT
0030D8 FFFF               M         dw      0xffff
                      00100         MT_EOT
0030DA FFFF               M         dw      0xffff
                      00101         MT_EOT
0030DC FFFF               M         dw      0xffff
                      00102         MT_EOT
0030DE FFFF               M         dw      0xffff
                      00103         
                      00104         ;; entry 0x30-0x3f
                      00105         MT_EOT
0030E0 FFFF               M         dw      0xffff
                      00106         MT_EOT
0030E2 FFFF               M         dw      0xffff
                      00107         MT_EOT
0030E4 FFFF               M         dw      0xffff
                      00108         MT_EOT
0030E6 FFFF               M         dw      0xffff
                      00109         MT_EOT
0030E8 FFFF               M         dw      0xffff
                      00110         MT_EOT
0030EA FFFF               M         dw      0xffff
                      00111         MT_EOT
0030EC FFFF               M         dw      0xffff
                      00112         MT_EOT
0030EE FFFF               M         dw      0xffff
                      00113         MT_EOT
0030F0 FFFF               M         dw      0xffff
                      00114         MT_EOT
0030F2 FFFF               M         dw      0xffff
                      00115         MT_EOT
0030F4 FFFF               M         dw      0xffff
                      00116         MT_EOT
0030F6 FFFF               M         dw      0xffff
                      00117         MT_EOT
0030F8 FFFF               M         dw      0xffff
                      00118         MT_EOT
0030FA FFFF               M         dw      0xffff
                      00119         MT_EOT
0030FC FFFF               M         dw      0xffff
                      00120         MT_EOT
0030FE FFFF               M         dw      0xffff
                      00121         
                      00122         ;; entry 0x40-0x4f
                      00123         MT_EOT
003100 FFFF               M         dw      0xffff
                      00124         MT_EOT
003102 FFFF               M         dw      0xffff
                      00125         MT_EOT
003104 FFFF               M         dw      0xffff
                      00126         MT_EOT
003106 FFFF               M         dw      0xffff
                      00127         MT_EOT
gpasm-0.14.3 #861 (Oct 28 2012) mios_wrapper\   11-16-2013  11:38:41        PAGE 15


LOC  OBJECT CODE     LINE SOURCE TEXT
  VALUE

003108 FFFF               M         dw      0xffff
                      00128         MT_EOT
00310A FFFF               M         dw      0xffff
                      00129         MT_EOT
00310C FFFF               M         dw      0xffff
                      00130         MT_EOT
00310E FFFF               M         dw      0xffff
                      00131         MT_EOT
003110 FFFF               M         dw      0xffff
                      00132         MT_EOT
003112 FFFF               M         dw      0xffff
                      00133         MT_EOT
003114 FFFF               M         dw      0xffff
                      00134         MT_EOT
003116 FFFF               M         dw      0xffff
                      00135         MT_EOT
003118 FFFF               M         dw      0xffff
                      00136         MT_EOT
00311A FFFF               M         dw      0xffff
                      00137         MT_EOT
00311C FFFF               M         dw      0xffff
                      00138         MT_EOT
00311E FFFF               M         dw      0xffff
                      00139         
                      00140         ;; entry 0x50-0x5f
                      00141         MT_EOT
003120 FFFF               M         dw      0xffff
                      00142         MT_EOT
003122 FFFF               M         dw      0xffff
                      00143         MT_EOT
003124 FFFF               M         dw      0xffff
                      00144         MT_EOT
003126 FFFF               M         dw      0xffff
                      00145         MT_EOT
003128 FFFF               M         dw      0xffff
                      00146         MT_EOT
00312A FFFF               M         dw      0xffff
                      00147         MT_EOT
00312C FFFF               M         dw      0xffff
                      00148         MT_EOT
00312E FFFF               M         dw      0xffff
                      00149         MT_EOT
003130 FFFF               M         dw      0xffff
                      00150         MT_EOT
003132 FFFF               M         dw      0xffff
                      00151         MT_EOT
003134 FFFF               M         dw      0xffff
                      00152         MT_EOT
003136 FFFF               M         dw      0xffff
                      00153         MT_EOT
003138 FFFF               M         dw      0xffff
                      00154         MT_EOT
00313A FFFF               M         dw      0xffff
gpasm-0.14.3 #861 (Oct 28 2012) mios_wrapper\   11-16-2013  11:38:41        PAGE 16


LOC  OBJECT CODE     LINE SOURCE TEXT
  VALUE

                      00155         MT_EOT
00313C FFFF               M         dw      0xffff
                      00156         MT_EOT
00313E FFFF               M         dw      0xffff
                      00157                 
                      00158         ;; entry 0x60-0x6f
                      00159         MT_EOT
003140 FFFF               M         dw      0xffff
                      00160         MT_EOT
003142 FFFF               M         dw      0xffff
                      00161         MT_EOT
003144 FFFF               M         dw      0xffff
                      00162         MT_EOT
003146 FFFF               M         dw      0xffff
                      00163         MT_EOT
003148 FFFF               M         dw      0xffff
                      00164         MT_EOT
00314A FFFF               M         dw      0xffff
                      00165         MT_EOT
00314C FFFF               M         dw      0xffff
                      00166         MT_EOT
00314E FFFF               M         dw      0xffff
                      00167         MT_EOT
003150 FFFF               M         dw      0xffff
                      00168         MT_EOT
003152 FFFF               M         dw      0xffff
                      00169         MT_EOT
003154 FFFF               M         dw      0xffff
                      00170         MT_EOT
003156 FFFF               M         dw      0xffff
                      00171         MT_EOT
003158 FFFF               M         dw      0xffff
                      00172         MT_EOT
00315A FFFF               M         dw      0xffff
                      00173         MT_EOT
00315C FFFF               M         dw      0xffff
                      00174         MT_EOT
00315E FFFF               M         dw      0xffff
                      00175 
                      00176         ;; entry 0x70-0x7f
                      00177         MT_EOT
003160 FFFF               M         dw      0xffff
                      00178         MT_EOT
003162 FFFF               M         dw      0xffff
                      00179         MT_EOT
003164 FFFF               M         dw      0xffff
                      00180         MT_EOT
003166 FFFF               M         dw      0xffff
                      00181         MT_EOT
003168 FFFF               M         dw      0xffff
                      00182         MT_EOT
00316A FFFF               M         dw      0xffff
                      00183         MT_EOT
gpasm-0.14.3 #861 (Oct 28 2012) mios_wrapper\   11-16-2013  11:38:41        PAGE 17


LOC  OBJECT CODE     LINE SOURCE TEXT
  VALUE

00316C FFFF               M         dw      0xffff
                      00184         MT_EOT
00316E FFFF               M         dw      0xffff
                      00185         MT_EOT
003170 FFFF               M         dw      0xffff
                      00186         MT_EOT
003172 FFFF               M         dw      0xffff
                      00187         MT_EOT
003174 FFFF               M         dw      0xffff
                      00188         MT_EOT
003176 FFFF               M         dw      0xffff
                      00189         MT_EOT
003178 FFFF               M         dw      0xffff
                      00190         MT_EOT
00317A FFFF               M         dw      0xffff
                      00191         MT_EOT
00317C FFFF               M         dw      0xffff
                      00192         MT_EOT
00317E FFFF               M         dw      0xffff
                      00193 
                      00194         ;; entry 0x80-0x8f
                      00195         MT_EOT
003180 FFFF               M         dw      0xffff
                      00196         MT_EOT
003182 FFFF               M         dw      0xffff
                      00197         MT_EOT
003184 FFFF               M         dw      0xffff
                      00198         MT_EOT
003186 FFFF               M         dw      0xffff
                      00199         MT_EOT
003188 FFFF               M         dw      0xffff
                      00200         MT_EOT
00318A FFFF               M         dw      0xffff
                      00201         MT_EOT
00318C FFFF               M         dw      0xffff
                      00202         MT_EOT
00318E FFFF               M         dw      0xffff
                      00203         MT_EOT
003190 FFFF               M         dw      0xffff
                      00204         MT_EOT
003192 FFFF               M         dw      0xffff
                      00205         MT_EOT
003194 FFFF               M         dw      0xffff
                      00206         MT_EOT
003196 FFFF               M         dw      0xffff
                      00207         MT_EOT
003198 FFFF               M         dw      0xffff
                      00208         MT_EOT
00319A FFFF               M         dw      0xffff
                      00209         MT_EOT
00319C FFFF               M         dw      0xffff
                      00210         MT_EOT
00319E FFFF               M         dw      0xffff
gpasm-0.14.3 #861 (Oct 28 2012) mios_wrapper\   11-16-2013  11:38:41        PAGE 18


LOC  OBJECT CODE     LINE SOURCE TEXT
  VALUE

                      00211 
                      00212         ;; entry 0x90-0x9f
                      00213         MT_EOT
0031A0 FFFF               M         dw      0xffff
                      00214         MT_EOT
0031A2 FFFF               M         dw      0xffff
                      00215         MT_EOT
0031A4 FFFF               M         dw      0xffff
                      00216         MT_EOT
0031A6 FFFF               M         dw      0xffff
                      00217         MT_EOT
0031A8 FFFF               M         dw      0xffff
                      00218         MT_EOT
0031AA FFFF               M         dw      0xffff
                      00219         MT_EOT
0031AC FFFF               M         dw      0xffff
                      00220         MT_EOT
0031AE FFFF               M         dw      0xffff
                      00221         MT_EOT
0031B0 FFFF               M         dw      0xffff
                      00222         MT_EOT
0031B2 FFFF               M         dw      0xffff
                      00223         MT_EOT
0031B4 FFFF               M         dw      0xffff
                      00224         MT_EOT
0031B6 FFFF               M         dw      0xffff
                      00225         MT_EOT
0031B8 FFFF               M         dw      0xffff
                      00226         MT_EOT
0031BA FFFF               M         dw      0xffff
                      00227         MT_EOT
0031BC FFFF               M         dw      0xffff
                      00228         MT_EOT
0031BE FFFF               M         dw      0xffff
                      00229 
                      00230         ;; entry 0xa0-0xaf
                      00231         MT_EOT
0031C0 FFFF               M         dw      0xffff
                      00232         MT_EOT
0031C2 FFFF               M         dw      0xffff
                      00233         MT_EOT
0031C4 FFFF               M         dw      0xffff
                      00234         MT_EOT
0031C6 FFFF               M         dw      0xffff
                      00235         MT_EOT
0031C8 FFFF               M         dw      0xffff
                      00236         MT_EOT
0031CA FFFF               M         dw      0xffff
                      00237         MT_EOT
0031CC FFFF               M         dw      0xffff
                      00238         MT_EOT
0031CE FFFF               M         dw      0xffff
                      00239         MT_EOT
gpasm-0.14.3 #861 (Oct 28 2012) mios_wrapper\   11-16-2013  11:38:41        PAGE 19


LOC  OBJECT CODE     LINE SOURCE TEXT
  VALUE

0031D0 FFFF               M         dw      0xffff
                      00240         MT_EOT
0031D2 FFFF               M         dw      0xffff
                      00241         MT_EOT
0031D4 FFFF               M         dw      0xffff
                      00242         MT_EOT
0031D6 FFFF               M         dw      0xffff
                      00243         MT_EOT
0031D8 FFFF               M         dw      0xffff
                      00244         MT_EOT
0031DA FFFF               M         dw      0xffff
                      00245         MT_EOT
0031DC FFFF               M         dw      0xffff
                      00246         MT_EOT
0031DE FFFF               M         dw      0xffff
                      00247 
                      00248         ;; entry 0xb1-0xbf
                      00249         MT_EOT
0031E0 FFFF               M         dw      0xffff
                      00250         MT_EOT
0031E2 FFFF               M         dw      0xffff
                      00251         MT_EOT
0031E4 FFFF               M         dw      0xffff
                      00252         MT_EOT
0031E6 FFFF               M         dw      0xffff
                      00253         MT_EOT
0031E8 FFFF               M         dw      0xffff
                      00254         MT_EOT
0031EA FFFF               M         dw      0xffff
                      00255         MT_EOT
0031EC FFFF               M         dw      0xffff
                      00256         MT_EOT
0031EE FFFF               M         dw      0xffff
                      00257         MT_EOT
0031F0 FFFF               M         dw      0xffff
                      00258         MT_EOT
0031F2 FFFF               M         dw      0xffff
                      00259         MT_EOT
0031F4 FFFF               M         dw      0xffff
                      00260         MT_EOT
0031F6 FFFF               M         dw      0xffff
                      00261         MT_EOT
0031F8 FFFF               M         dw      0xffff
                      00262         MT_EOT
0031FA FFFF               M         dw      0xffff
                      00263         MT_EOT
0031FC FFFF               M         dw      0xffff
                      00264         MT_EOT
0031FE FFFF               M         dw      0xffff
                      00265 
                      00266         ;; entry 0xc0-0xcf
                      00267         MT_EOT
003200 FFFF               M         dw      0xffff
gpasm-0.14.3 #861 (Oct 28 2012) mios_wrapper\   11-16-2013  11:38:41        PAGE 20


LOC  OBJECT CODE     LINE SOURCE TEXT
  VALUE

                      00268         MT_EOT
003202 FFFF               M         dw      0xffff
                      00269         MT_EOT
003204 FFFF               M         dw      0xffff
                      00270         MT_EOT
003206 FFFF               M         dw      0xffff
                      00271         MT_EOT
003208 FFFF               M         dw      0xffff
                      00272         MT_EOT
00320A FFFF               M         dw      0xffff
                      00273         MT_EOT
00320C FFFF               M         dw      0xffff
                      00274         MT_EOT
00320E FFFF               M         dw      0xffff
                      00275         MT_EOT
003210 FFFF               M         dw      0xffff
                      00276         MT_EOT
003212 FFFF               M         dw      0xffff
                      00277         MT_EOT
003214 FFFF               M         dw      0xffff
                      00278         MT_EOT
003216 FFFF               M         dw      0xffff
                      00279         MT_EOT
003218 FFFF               M         dw      0xffff
                      00280         MT_EOT
00321A FFFF               M         dw      0xffff
                      00281         MT_EOT
00321C FFFF               M         dw      0xffff
                      00282         MT_EOT
00321E FFFF               M         dw      0xffff
                      00283 
                      00284         ;; entry 0xd0-0xdf
                      00285         MT_EOT
003220 FFFF               M         dw      0xffff
                      00286         MT_EOT
003222 FFFF               M         dw      0xffff
                      00287         MT_EOT
003224 FFFF               M         dw      0xffff
                      00288         MT_EOT
003226 FFFF               M         dw      0xffff
                      00289         MT_EOT
003228 FFFF               M         dw      0xffff
                      00290         MT_EOT
00322A FFFF               M         dw      0xffff
                      00291         MT_EOT
00322C FFFF               M         dw      0xffff
                      00292         MT_EOT
00322E FFFF               M         dw      0xffff
                      00293         MT_EOT
003230 FFFF               M         dw      0xffff
                      00294         MT_EOT
003232 FFFF               M         dw      0xffff
                      00295         MT_EOT
gpasm-0.14.3 #861 (Oct 28 2012) mios_wrapper\   11-16-2013  11:38:41        PAGE 21


LOC  OBJECT CODE     LINE SOURCE TEXT
  VALUE

003234 FFFF               M         dw      0xffff
                      00296         MT_EOT
003236 FFFF               M         dw      0xffff
                      00297         MT_EOT
003238 FFFF               M         dw      0xffff
                      00298         MT_EOT
00323A FFFF               M         dw      0xffff
                      00299         MT_EOT
00323C FFFF               M         dw      0xffff
                      00300         MT_EOT
00323E FFFF               M         dw      0xffff
                      00301 
                      00302         ;; entry 0xe0-0xef
                      00303         MT_EOT
003240 FFFF               M         dw      0xffff
                      00304         MT_EOT
003242 FFFF               M         dw      0xffff
                      00305         MT_EOT
003244 FFFF               M         dw      0xffff
                      00306         MT_EOT
003246 FFFF               M         dw      0xffff
                      00307         MT_EOT
003248 FFFF               M         dw      0xffff
                      00308         MT_EOT
00324A FFFF               M         dw      0xffff
                      00309         MT_EOT
00324C FFFF               M         dw      0xffff
                      00310         MT_EOT
00324E FFFF               M         dw      0xffff
                      00311         MT_EOT
003250 FFFF               M         dw      0xffff
                      00312         MT_EOT
003252 FFFF               M         dw      0xffff
                      00313         MT_EOT
003254 FFFF               M         dw      0xffff
                      00314         MT_EOT
003256 FFFF               M         dw      0xffff
                      00315         MT_EOT
003258 FFFF               M         dw      0xffff
                      00316         MT_EOT
00325A FFFF               M         dw      0xffff
                      00317         MT_EOT
00325C FFFF               M         dw      0xffff
                      00318         MT_EOT
00325E FFFF               M         dw      0xffff
                      00319 
                      00320         ;; entry 0xf0-0xff
                      00321         MT_EOT
003260 FFFF               M         dw      0xffff
                      00322         MT_EOT
003262 FFFF               M         dw      0xffff
                      00323         MT_EOT
003264 FFFF               M         dw      0xffff
gpasm-0.14.3 #861 (Oct 28 2012) mios_wrapper\   11-16-2013  11:38:41        PAGE 22


LOC  OBJECT CODE     LINE SOURCE TEXT
  VALUE

                      00324         MT_EOT
003266 FFFF               M         dw      0xffff
                      00325         MT_EOT
003268 FFFF               M         dw      0xffff
                      00326         MT_EOT
00326A FFFF               M         dw      0xffff
                      00327         MT_EOT
00326C FFFF               M         dw      0xffff
                      00328         MT_EOT
00326E FFFF               M         dw      0xffff
                      00329         MT_EOT
003270 FFFF               M         dw      0xffff
                      00330         MT_EOT
003272 FFFF               M         dw      0xffff
                      00331         MT_EOT
003274 FFFF               M         dw      0xffff
                      00332         MT_EOT
003276 FFFF               M         dw      0xffff
                      00333         MT_EOT
003278 FFFF               M         dw      0xffff
                      00334         MT_EOT
00327A FFFF               M         dw      0xffff
                      00335         MT_EOT
00327C FFFF               M         dw      0xffff
                      00336         MT_EOT
00327E FFFF               M         dw      0xffff
                      00337 
                      00338 
                      00339 
                      00340 ; ==========================================================================
                      00341 
                      00342         org     0x3280          ; never change the origin!
                      00343 
                      00344 ;; --------------------------------------------------------------------------
                      00345 ;; In this table DIN pins have to be assigned to rotary encoders for the
                      00346 ;; MIOS_ENC driver 
                      00347 ;; 
                      00348 ;; up to 64 entries are provided
                      00349 ;; 
                      00350 ;; The table must be terminated with an ENC_EOT entry. Unused entries should
                      00351 ;; be filled with ENC_EOT
                      00352 ;; 
                      00353 ;; ENC_ENTRY provides following parameters
                      00354 ;;    o first parameter: number of shift register - 1, 2, 3, ... 16
                      00355 ;;    o second parameter: number of pin; since two pins are necessary
                      00356 ;;      for each encoder, an even number is expected: 0, 2, 4 or 6
                      00357 ;;    o the third parameter contains the encoder mode:
                      00358 ;;      either MIOS_ENC_MODE_NON_DETENTED
                      00359 ;;          or MIOS_ENC_MODE_DETENTED
                      00360 ;;
                      00361 ;; Configuration Examples:
                      00362 ;;    ENC_ENTRY  1,  0,  MIOS_ENC_MODE_NON_DETENTED    ; non-detented encoder at pin 0 and 1 of SR 1
                      00363 ;;    ENC_ENTRY  1,  2,  MIOS_ENC_MODE_DETENTED        ; detented encoder at pin 2 and 3 of SR 1
gpasm-0.14.3 #861 (Oct 28 2012) mios_wrapper\   11-16-2013  11:38:41        PAGE 23


LOC  OBJECT CODE     LINE SOURCE TEXT
  VALUE

                      00364 ;;    ENC_ENTRY  9,  6,  MIOS_ENC_MODE_NON_DETENTED    ; non-detented encoder at pin 6 and 7 of SR 9
                      00365 ;; --------------------------------------------------------------------------
                      00366 
                      00367         ;; encoder entry structure
                      00368 ENC_ENTRY MACRO sr, din_0, mode
                      00369         dw      (mode << 8) | (din_0 + 8*(sr-1))
                      00370         ENDM    
                      00371 ENC_EOT MACRO
                      00372         dw      0xffff
                      00373         ENDM
                      00374 
                      00375         global  _MIOS_ENC_PIN_TABLE
                      00376 
003280                00377 _MIOS_ENC_PIN_TABLE
003280                00378 MIOS_ENC_PIN_TABLE
                      00379         ;; encoders 1-16
                      00380         ;;        SR  Pin  Mode
                      00381         ENC_EOT
003280 FFFF               M         dw      0xffff
                      00382         ENC_EOT
003282 FFFF               M         dw      0xffff
                      00383         ENC_EOT
003284 FFFF               M         dw      0xffff
                      00384         ENC_EOT
003286 FFFF               M         dw      0xffff
                      00385         ENC_EOT
003288 FFFF               M         dw      0xffff
                      00386         ENC_EOT
00328A FFFF               M         dw      0xffff
                      00387         ENC_EOT
00328C FFFF               M         dw      0xffff
                      00388         ENC_EOT
00328E FFFF               M         dw      0xffff
                      00389         ENC_EOT
003290 FFFF               M         dw      0xffff
                      00390         ENC_EOT
003292 FFFF               M         dw      0xffff
                      00391         ENC_EOT
003294 FFFF               M         dw      0xffff
                      00392         ENC_EOT
003296 FFFF               M         dw      0xffff
                      00393         ENC_EOT
003298 FFFF               M         dw      0xffff
                      00394         ENC_EOT
00329A FFFF               M         dw      0xffff
                      00395         ENC_EOT
00329C FFFF               M         dw      0xffff
                      00396         ENC_EOT
00329E FFFF               M         dw      0xffff
                      00397 
                      00398         ;; encoders 17-32
                      00399         ENC_EOT
0032A0 FFFF               M         dw      0xffff
gpasm-0.14.3 #861 (Oct 28 2012) mios_wrapper\   11-16-2013  11:38:41        PAGE 24


LOC  OBJECT CODE     LINE SOURCE TEXT
  VALUE

                      00400         ENC_EOT
0032A2 FFFF               M         dw      0xffff
                      00401         ENC_EOT
0032A4 FFFF               M         dw      0xffff
                      00402         ENC_EOT
0032A6 FFFF               M         dw      0xffff
                      00403         ENC_EOT
0032A8 FFFF               M         dw      0xffff
                      00404         ENC_EOT
0032AA FFFF               M         dw      0xffff
                      00405         ENC_EOT
0032AC FFFF               M         dw      0xffff
                      00406         ENC_EOT
0032AE FFFF               M         dw      0xffff
                      00407         ENC_EOT
0032B0 FFFF               M         dw      0xffff
                      00408         ENC_EOT
0032B2 FFFF               M         dw      0xffff
                      00409         ENC_EOT
0032B4 FFFF               M         dw      0xffff
                      00410         ENC_EOT
0032B6 FFFF               M         dw      0xffff
                      00411         ENC_EOT
0032B8 FFFF               M         dw      0xffff
                      00412         ENC_EOT
0032BA FFFF               M         dw      0xffff
                      00413         ENC_EOT
0032BC FFFF               M         dw      0xffff
                      00414         ENC_EOT
0032BE FFFF               M         dw      0xffff
                      00415 
                      00416         ;; encoders 33-48
                      00417         ENC_EOT
0032C0 FFFF               M         dw      0xffff
                      00418         ENC_EOT
0032C2 FFFF               M         dw      0xffff
                      00419         ENC_EOT
0032C4 FFFF               M         dw      0xffff
                      00420         ENC_EOT
0032C6 FFFF               M         dw      0xffff
                      00421         ENC_EOT
0032C8 FFFF               M         dw      0xffff
                      00422         ENC_EOT
0032CA FFFF               M         dw      0xffff
                      00423         ENC_EOT
0032CC FFFF               M         dw      0xffff
                      00424         ENC_EOT
0032CE FFFF               M         dw      0xffff
                      00425         ENC_EOT
0032D0 FFFF               M         dw      0xffff
                      00426         ENC_EOT
0032D2 FFFF               M         dw      0xffff
                      00427         ENC_EOT
gpasm-0.14.3 #861 (Oct 28 2012) mios_wrapper\   11-16-2013  11:38:41        PAGE 25


LOC  OBJECT CODE     LINE SOURCE TEXT
  VALUE

0032D4 FFFF               M         dw      0xffff
                      00428         ENC_EOT
0032D6 FFFF               M         dw      0xffff
                      00429         ENC_EOT
0032D8 FFFF               M         dw      0xffff
                      00430         ENC_EOT
0032DA FFFF               M         dw      0xffff
                      00431         ENC_EOT
0032DC FFFF               M         dw      0xffff
                      00432         ENC_EOT
0032DE FFFF               M         dw      0xffff
                      00433 
                      00434         ;; encoders 49-64
                      00435         ENC_EOT
0032E0 FFFF               M         dw      0xffff
                      00436         ENC_EOT
0032E2 FFFF               M         dw      0xffff
                      00437         ENC_EOT
0032E4 FFFF               M         dw      0xffff
                      00438         ENC_EOT
0032E6 FFFF               M         dw      0xffff
                      00439         ENC_EOT
0032E8 FFFF               M         dw      0xffff
                      00440         ENC_EOT
0032EA FFFF               M         dw      0xffff
                      00441         ENC_EOT
0032EC FFFF               M         dw      0xffff
                      00442         ENC_EOT
0032EE FFFF               M         dw      0xffff
                      00443         ENC_EOT
0032F0 FFFF               M         dw      0xffff
                      00444         ENC_EOT
0032F2 FFFF               M         dw      0xffff
                      00445         ENC_EOT
0032F4 FFFF               M         dw      0xffff
                      00446         ENC_EOT
0032F6 FFFF               M         dw      0xffff
                      00447         ENC_EOT
0032F8 FFFF               M         dw      0xffff
                      00448         ENC_EOT
0032FA FFFF               M         dw      0xffff
                      00449         ENC_EOT
0032FC FFFF               M         dw      0xffff
                      00450         ENC_EOT
0032FE FFFF               M         dw      0xffff
                      00451 
                      00452         org     0x3300          ; never change the origin!
                      00033 
                      00034 ;; ---[ Custom LCD driver ]---
                      00001 #include "app_lcd.inc"
                      00002 ;
                      00003 ; MIOS Custom LCD Driver Skeleton
                      00004 ;
gpasm-0.14.3 #861 (Oct 28 2012) mios_wrapper\   11-16-2013  11:38:41        PAGE 26


LOC  OBJECT CODE     LINE SOURCE TEXT
  VALUE

                      00005 ; ==========================================================================
                      00006 ;
                      00007 ;  Copyright 1998-2006 Thorsten Klose (tk@midibox.org)
                      00008 ;  Licensed for personal non-commercial use only.
                      00009 ;  All other rights reserved.
                      00010 ; 
                      00011 ; ==========================================================================
                      00012 
                      00013 ;; --------------------------------------------------------------------------
                      00014 ;;  Following system variables are given by MIOS and can be directly 
                      00015 ;;  accessed by the driver. The addresses are defined in mios.h and
                      00016 ;;  should not be changed
                      00017 ;; 
                      00018 ;;  MIOS_GLCD_BUFFER         a 8 byte buffer for data transfers
                      00019 ;;  MIOS_LCD_OPTION1         contains the first LCD option given by MIOS_LCD_TypeSet
                      00020 ;;  MIOS_LCD_OPTION2         contains the second LCD option given by MIOS_LCD_TypeSet
                      00021 ;;  MIOS_LCD_CURSOR_POS      the current cursor pos of characters (GLCD: multiplied by width)
                      00022 ;;  MIOS_GLCD_GCURSOR_X      for GLCDs: the current X position of graphical cursor
                      00023 ;;  MIOS_GLCD_GCURSOR_Y      for GLCDs: the current Y position of graphical cursor
                      00024 ;;  MIOS_GLCD_FONT_WIDTH     for GLCDs: the fontwidth given by MIOS_GLCD_FontInit
                      00025 ;;  MIOS_GLCD_FONT_HEIGHT    for GLCDs: the fontheight given by MIOS_GLCD_FontInit
                      00026 ;;  MIOS_GLCD_FONT_X0        for GLCDs: the first byte within a char entry
                      00027 ;;  MIOS_GLCD_FONT_OFFSET    for GLCDs: the byte offset between the characters
                      00028 ;;  MIOS_GLCD_FONT_PTRL      for GLCDs: pointer to the character table, low-byte
                      00029 ;;  MIOS_GLCD_FONT_PTRH      for GLCDs: pointer to the character table, high-byte
                      00030 ;;  MIOS_LCD_TIMEOUT0        can be used for timeout loops
                      00031 ;;  MIOS_LCD_TIMEOUT1        can be used for timeout loops
                      00032 ;;  MIOS_GLCD_TMP1           can be used as temporary buffer
                      00033 ;;  MIOS_GLCD_TMP2           can be used as temporary buffer
                      00034 ;;  MIOS_GLCD_TMP3           can be used as temporary buffer
                      00035 ;;  MIOS_GLCD_TMP4           can be used as temporary buffer
                      00036 ;;  MIOS_LCD_Y0_OFFSET       Y0 offset of LCD
                      00037 ;;  MIOS_LCD_Y1_OFFSET       Y1 offset of LCD
                      00038 ;;  MIOS_LCD_Y2_OFFSET       Y2 offset of LCD
                      00039 ;;  MIOS_LCD_Y3_OFFSET       Y3 offset of LCD
                      00040 ;;  MIOS_LCD_CURSOR_POS_REAL unmapped cursor position which has been set with MIOS_LCD_CursorSet
                      00041 ;; 
                      00042 ;;  Note: the addresses are located in an upper bank and therefore have to
                      00043 ;;        be accessed with the BANKED flag. Also the BSR has to be justified
                      00044 ;;        before using the registers
                      00045 ;;  Example:
                      00046 ;;      SET_BSR MIOS_LCD_OPTION1        ; sets BSR to the bank where MIOS_LCD_*
                      00047 ;;                                      ; has been located. You don't need to
                      00048 ;;                                      ; change the BSR for the other LCD registers
                      00049 ;;      movf    MIOS_LCD_OPTION1, W, BANKED     ; get LCD option #1
                      00050 ;; 
                      00051 ;;  Important: to allow a proper interaction with MIOS applications, you are
                      00052 ;;  only allowed to modify MIOS_PARAMETER[123], the mutliplication registers
                      00053 ;;  and FSR1. You are not allowed to change TMP[1-5] or FSR0
                      00054 ;;  if you need some temporary registers, use the given addresses above or
                      00055 ;;  locate them to addresses which are not used by the application
                      00056 ;; --------------------------------------------------------------------------
                      00057         
gpasm-0.14.3 #861 (Oct 28 2012) mios_wrapper\   11-16-2013  11:38:41        PAGE 27


LOC  OBJECT CODE     LINE SOURCE TEXT
  VALUE

                      00058 ;; --------------------------------------------------------------------------
                      00059 ;;  This function is called by MIOS when the custom LCD should be initialized
                      00060 ;;  In:  MIOS_LCD_OPTION1 - contains the first LCD option given by MIOS_LCD_TypeSet
                      00061 ;;       MIOS_LCD_OPTION2 - contains the second LCD option given by MIOS_LCD_TypeSet
                      00062 ;;  Out: -
                      00063 ;; --------------------------------------------------------------------------
003300                00064 USER_LCD_Init
003300 0012           00065         return
                      00066 
                      00067 ;; --------------------------------------------------------------------------
                      00068 ;;  This function is called by MIOS when the custom LCD should be cleared
                      00069 ;;  In:  MIOS_LCD_OPTION1 - contains the first LCD option given by MIOS_LCD_TypeSet
                      00070 ;;       MIOS_LCD_OPTION2 - contains the second LCD option given by MIOS_LCD_TypeSet
                      00071 ;;  Out: -
                      00072 ;; --------------------------------------------------------------------------
003302                00073 USER_LCD_Clear
003302 0012           00074         return
                      00075 
                      00076 ;; --------------------------------------------------------------------------
                      00077 ;;  This function is called by MIOS when the cursor should be changed
                      00078 ;;  In:  MIOS_LCD_OPTION1 - contains the first LCD option given by MIOS_LCD_TypeSet
                      00079 ;;       MIOS_LCD_OPTION2 - contains the second LCD option given by MIOS_LCD_TypeSet
                      00080 ;;       MIOS_GLCD_CURSOR_X - horizontal cursor position (for GLCDs)
                      00081 ;;       MIOS_GLCD_CURSOR_X - vertical cursor position   (for GLCDs)
                      00082 ;;       MIOS_LCD_CURSOR    - character cursor position  (for CLCDs)
                      00083 ;;  Out: -
                      00084 ;; --------------------------------------------------------------------------
003304                00085 USER_LCD_CursorSet
003304 0012           00086         return
                      00087 
                      00088 ;; --------------------------------------------------------------------------
                      00089 ;;  This function is called by MIOS when a character should be print
                      00090 ;;  In:  WREG - character
                      00091 ;;       all other MIOS_*LCD_* registers
                      00092 ;;  Out: GLCDs should justify the X/Y cursor position
                      00093 ;; --------------------------------------------------------------------------
003306                00094 USER_LCD_PrintChar
003306 0012           00095         return
                      00096 
                      00097 ;; --------------------------------------------------------------------------
                      00098 ;;  FUNCTION: USER_LCD_Data
                      00099 ;;  DESCRIPTION: sends a data value to the LCD display.<BR>
                      00100 ;;  On CLCDs: branch directly to USER_LCD_PrintChar<BR>
                      00101 ;;  On GLCDs: ignore this function!
                      00102 ;;  IN:  data which should be sent
                      00103 ;;  OUT: -
                      00104 ;;  NOTE: see the custom_lcd_example for further details
                      00105 ;; --------------------------------------------------------------------------
003308                00106 USER_LCD_Data
003308 0012           00107         return
                      00108 
                      00109 ;; --------------------------------------------------------------------------
                      00110 ;;  FUNCTION: USER_LCD_Cmd
gpasm-0.14.3 #861 (Oct 28 2012) mios_wrapper\   11-16-2013  11:38:41        PAGE 28


LOC  OBJECT CODE     LINE SOURCE TEXT
  VALUE

                      00111 ;;  DESCRIPTION: sends a command to the LCD display.<BR>
                      00112 ;;  On CLCDs: use this function to decode the HD44780 commands if required<BR>
                      00113 ;;  On GLCDs: ignore this function!
                      00114 ;;  IN:  command which should be sent
                      00115 ;;  OUT: -
                      00116 ;;  NOTE: see the custom_lcd_example for further details
                      00117 ;; --------------------------------------------------------------------------
00330A                00118 USER_LCD_Cmd
00330A 0012           00119         return
                      00120 
                      00121 ;; --------------------------------------------------------------------------
                      00122 ;;  FUNCTION: USER_LCD_SpecialCharInit
                      00123 ;;  DESCRIPTION: see MIOS_CLCD_SpecialCharInit
                      00124 ;;  IN:  number of special character (0-7) in WREG
                      00125 ;;       pointer to special char pattern in TBLPTR (consists of 8
                      00126 ;;          entries for every character-line)
                      00127 ;;  OUT: TBLPTR has to be set to next table entry (TBLPTR+=8)
                      00128 ;;  NOTE: see the custom_lcd_example for further details
                      00129 ;; --------------------------------------------------------------------------
00330C                00130 USER_LCD_SpecialCharInit
00330C 0012           00131         return
                      00035 
                      00036 ; Don't enable this --- its only used by a special testcase which checks 
                      00037 ; parameter passing on functions which are difficult to verify with
                      00038 ; directed tests
                      00039 #ifndef PARAMETER_PASSING_TEST
                      00040 #define PARAMETER_PASSING_TEST 0
                      00041 #endif
                      00042 
                      00043 ;; ==========================================================================
                      00044 ;;  Export MIOS variables
                      00045 ;; ==========================================================================
                      00046         global  _MIOS_BOX_CFG0
                      00047         global  _MIOS_BOX_CFG1
                      00048         global  _MIOS_BOX_STAT
                      00049         global  _MIOS_PARAMETER1
                      00050         global  _MIOS_PARAMETER2
                      00051         global  _MIOS_PARAMETER3
                      00052 
                      00053 MIOS_VARIABLES          udata   0x0000
000000                00054 _MIOS_BOX_CFG0          res     1
000001                00055 _MIOS_BOX_CFG1          res     1
000002                00056 _MIOS_BOX_STAT          res     1
000003                00057 _MIOS_PARAMETER1        res     1
000004                00058 _MIOS_PARAMETER2        res     1
000005                00059 _MIOS_PARAMETER3        res     1
000006                00060 _TMP1                   res     1
000007                00061 _TMP2                   res     1
000008                00062 _TMP3                   res     1
000009                00063 _TMP4                   res     1
00000A                00064 _TMP5                   res     1
00000B                00065 _IRQ_TMP1               res     1
00000C                00066 _IRQ_TMP2               res     1
gpasm-0.14.3 #861 (Oct 28 2012) mios_wrapper\   11-16-2013  11:38:41        PAGE 29


LOC  OBJECT CODE     LINE SOURCE TEXT
  VALUE

00000D                00067 _IRQ_TMP3               res     1
00000E                00068 _IRQ_TMP4               res     1
00000F                00069 _IRQ_TMP5               res     1
                      00070 
                      00071 ;; ==========================================================================
                      00072 ;;  All MIOS hooks in one file
                      00073 ;; ==========================================================================
                      00074 
                      00075 MIOS_WRAPPER_CODE       code
                      00076 
                      00077 ;; --------------------------------------------------------------------------
                      00078 ;;  This function is called by MIOS after startup to initialize the 
                      00079 ;;  application
                      00080 ;; --------------------------------------------------------------------------
000000                00081 USER_Init
                      00082         extern  _Init
                      00083 
000000 EE03 F07F      00084         lfsr    FSR0, STACK_HEAD        ; initialize stack
000004 EE23 F07F      00085         lfsr    FSR2, STACK_HEAD
000008 EF?? F???      00086         goto    _Init   
                      00087 
                      00088 
                      00089 ;; --------------------------------------------------------------------------
                      00090 ;;  This function is called by MIOS in the mainloop when nothing else is to do
                      00091 ;; --------------------------------------------------------------------------
00000C                00092 USER_Tick
                      00093         extern  _Tick
                      00094 
00000C EE03 F07F      00095         lfsr    FSR0, STACK_HEAD        ; initialize stack
000010 EE23 F07F      00096         lfsr    FSR2, STACK_HEAD
000014 EF?? F???      00097         goto    _Tick
                      00098 
                      00099 
                      00100 ;; --------------------------------------------------------------------------
                      00101 ;;  This function is periodically called by MIOS. The frequency has to be
                      00102 ;;  initialized with MIOS_Timer_Set
                      00103 ;;  Note that this is an interrupt service routine! Use FSR2 instead of FSR0
                      00104 ;;  and IRQ_TMPx instead of TMPx -- and make the routine as fast as possible!
                      00105 ;; --------------------------------------------------------------------------
000018                00106 USER_Timer
                      00107         extern  _Timer
                      00108 
000018 EE23 F03F      00109         lfsr    FSR2, STACK_IRQ_HEAD    ; initialize IRQ stack
00001C CFE9 FFDD      00110         movff   FSR0L, POSTDEC2         ; save FSR0[LH] on IRQ stack
000020 CFEA FFDD      00111         movff   FSR0H, POSTDEC2
000024 EE03 F03D      00112         lfsr    FSR0, STACK_IRQ_HEAD-2  ; write stack pointer also to FSR0
000028 EC?? F???      00113         call    _Timer                  ; call C hook
00002C C33F FFE9      00114         movff   STACK_IRQ_HEAD-0, FSR0L ; restore FSR0[LH] directly from memory (more fail save)
000030 C33E FFEA      00115         movff   STACK_IRQ_HEAD-1, FSR0H ; restore FSR0[LH] directly from memory (more fail save)
000034 0012           00116         return
                      00117 
                      00118 
                      00119 ;; --------------------------------------------------------------------------
gpasm-0.14.3 #861 (Oct 28 2012) mios_wrapper\   11-16-2013  11:38:41        PAGE 30


LOC  OBJECT CODE     LINE SOURCE TEXT
  VALUE

                      00120 ;;  This function is called by MIOS when a debug command has been received
                      00121 ;;  via SysEx
                      00122 ;;  Input:
                      00123 ;;     o WREG, MIOS_PARAMETER1, MIOS_PARAMETER2, MIOS_PARAMETER3 like
                      00124 ;;       specified in the debug command
                      00125 ;;  Output:
                      00126 ;;     o return values WREG, MIOS_PARAMETER1, MIOS_PARAMETER2, MIOS_PARAMETER3
                      00127 ;; --------------------------------------------------------------------------
000036                00128 USER_MPROC_DebugTrigger
                      00129         ;; not really required for C programs
000036 0012           00130         return
                      00131 
                      00132 
                      00133 ;; --------------------------------------------------------------------------
                      00134 ;;  This function is called by MIOS when the display content should be 
                      00135 ;;  initialized. Thats the case during startup and after a temporary message
                      00136 ;;  has been printed on the screen
                      00137 ;; --------------------------------------------------------------------------
000038                00138 USER_DISPLAY_Init
                      00139         extern  _DISPLAY_Init
                      00140 
000038 EE03 F07F      00141         lfsr    FSR0, STACK_HEAD        ; initialize stack
00003C EE23 F07F      00142         lfsr    FSR2, STACK_HEAD
000040 EF?? F???      00143         goto    _DISPLAY_Init
                      00144 
                      00145 ;; --------------------------------------------------------------------------
                      00146 ;;  This function is called in the mainloop when no temporary message is shown
                      00147 ;;  on screen. Print the realtime messages here
                      00148 ;; --------------------------------------------------------------------------
000044                00149 USER_DISPLAY_Tick
                      00150         extern  _DISPLAY_Tick
                      00151 
000044 EE03 F07F      00152         lfsr    FSR0, STACK_HEAD        ; initialize stack
000048 EE23 F07F      00153         lfsr    FSR2, STACK_HEAD
00004C EF?? F???      00154         goto    _DISPLAY_Tick
                      00155 
                      00156 
                      00157 ;; --------------------------------------------------------------------------
                      00158 ;;  This function is called by MIOS when a complete MIDI event has been received
                      00159 ;;  Input:
                      00160 ;;     o first  MIDI event byte in MIOS_PARAMETER1
                      00161 ;;     o second MIDI event byte in MIOS_PARAMETER2
                      00162 ;;     o third  MIDI event byte in MIOS_PARAMETER3
                      00163 ;; --------------------------------------------------------------------------
000050                00164 USER_MPROC_NotifyReceivedEvent
                      00165         extern  _MPROC_NotifyReceivedEvnt
                      00166 
000050 EE03 F07F      00167         lfsr    FSR0, STACK_HEAD        ; initialize stack
000054 EE23 F07F      00168         lfsr    FSR2, STACK_HEAD
                      00169 
000058 C005 FFED      00170         movff   MIOS_PARAMETER3, POSTDEC0
00005C C004 FFED      00171         movff   MIOS_PARAMETER2, POSTDEC0
000060 5003           00172         movf    MIOS_PARAMETER1, W
gpasm-0.14.3 #861 (Oct 28 2012) mios_wrapper\   11-16-2013  11:38:41        PAGE 31


LOC  OBJECT CODE     LINE SOURCE TEXT
  VALUE

000062 EF?? F???      00173         goto    _MPROC_NotifyReceivedEvnt
                      00174 
                      00175 
                      00176 ;; --------------------------------------------------------------------------
                      00177 ;;  This function is called by MIOS when a MIDI event has been received
                      00178 ;;  which has been specified in the CONFIG_MIDI_IN table
                      00179 ;;  Input:
                      00180 ;;     o number of entry in WREG
                      00181 ;;     o first  MIDI event byte in MIOS_PARAMETER1
                      00182 ;;     o second MIDI event byte in MIOS_PARAMETER2
                      00183 ;;     o third  MIDI event byte in MIOS_PARAMETER3
                      00184 ;; --------------------------------------------------------------------------
000066                00185 USER_MPROC_NotifyFoundEvent
                      00186         extern  _MPROC_NotifyFoundEvent
                      00187 
000066 EE03 F07F      00188         lfsr    FSR0, STACK_HEAD        ; initialize stack
00006A EE23 F07F      00189         lfsr    FSR2, STACK_HEAD
                      00190 
00006E C005 FFED      00191         movff   MIOS_PARAMETER3, POSTDEC0
000072 C004 FFED      00192         movff   MIOS_PARAMETER2, POSTDEC0
000076 C003 FFED      00193         movff   MIOS_PARAMETER1, POSTDEC0
00007A 6EED           00194         movwf   POSTDEC0                ; TK: required for SDCC 2.5.0, don't know why...
                      00195         ;; entry number still in wreg
00007C EF?? F???      00196         goto    _MPROC_NotifyFoundEvent
                      00197 
                      00198 
                      00199 ;; --------------------------------------------------------------------------
                      00200 ;;  This function is called by MIOS when a MIDI event has not been completly
                      00201 ;;  received within 2 seconds
                      00202 ;; --------------------------------------------------------------------------
000080                00203 USER_MPROC_NotifyTimeout
                      00204         extern  _MPROC_NotifyTimeout
                      00205 
000080 EE03 F07F      00206         lfsr    FSR0, STACK_HEAD        ; initialize stack
000084 EE23 F07F      00207         lfsr    FSR2, STACK_HEAD
000088 EF?? F???      00208         goto    _MPROC_NotifyTimeout
                      00209 
                      00210 
                      00211 ;; --------------------------------------------------------------------------
                      00212 ;;  This function is called by MIOS when a MIDI byte has been received
                      00213 ;;  Input:
                      00214 ;;     o received MIDI byte in WREG and MIOS_PARAMETER1
                      00215 ;; --------------------------------------------------------------------------
00008C                00216 USER_MPROC_NotifyReceivedByte
                      00217         extern  _MPROC_NotifyReceivedByte
                      00218 
00008C EE03 F07F      00219         lfsr    FSR0, STACK_HEAD        ; initialize stack
000090 EE23 F07F      00220         lfsr    FSR2, STACK_HEAD
                      00221 
                      00222         ;; MIDI byte still in WREG
000094 EF?? F???      00223         goto    _MPROC_NotifyReceivedByte
                      00224 
                      00225 ;; --------------------------------------------------------------------------
gpasm-0.14.3 #861 (Oct 28 2012) mios_wrapper\   11-16-2013  11:38:41        PAGE 32


LOC  OBJECT CODE     LINE SOURCE TEXT
  VALUE

                      00226 ;;  This function is called by MIOS before the transfer of a MIDI byte. 
                      00227 ;;  It can be used to monitor the Tx activity or to do any other actions
                      00228 ;;  (e.g. to switch a pin for multiplexed MIDI Outs) before the byte will 
                      00229 ;;  be sent.
                      00230 ;;  Note that this is an interrupt service routine! Use FSR2 instead of FSR0
                      00231 ;;  and IRQ_TMPx instead of TMPx -- and make the routine as fast as possible!
                      00232 ;;  Input:
                      00233 ;;     o transmitted byte in WREG
                      00234 ;; --------------------------------------------------------------------------
000098                00235 USER_MIDI_NotifyTx
                      00236         ;; too time consuming for C programs --- should be handled so fast as
                      00237         ;; possible and therefore serviced in assembler
000098 0012           00238         return
                      00239 
                      00240 ;; --------------------------------------------------------------------------
                      00241 ;;  This function is called by MIOS when a MIDI byte has been received.
                      00242 ;;  It can be used to monitor the Rx activity or to do any action - e.g.
                      00243 ;;  to react on realtime events like MIDI clock (0xf8) with a minimum latency
                      00244 ;;  Note that this is an interrupt service routine! Use FSR2 instead of FSR0
                      00245 ;;  and IRQ_TMPx instead of TMPx -- and make the routine as fast as possible!
                      00246 ;;  Input:
                      00247 ;;     o received byte in WREG
                      00248 ;; --------------------------------------------------------------------------
00009A                00249 USER_MIDI_NotifyRx
                      00250         ;; too time consuming for C programs --- should be handled so fast as
                      00251         ;; possible and therefore serviced in assembler
00009A 0012           00252         return
                      00253 
                      00254 ;; --------------------------------------------------------------------------
                      00255 ;;  This function is called by MIOS when an button has been toggled
                      00256 ;;  Input:
                      00257 ;;     o Button number in WREG and MIOS_PARAMETER1
                      00258 ;;     o Button value MIOS_PARAMETER2:
                      00259 ;;       - 1 if button has been released (=5V)
                      00260 ;;       - 0 if button has been pressed (=0V)
                      00261 ;; --------------------------------------------------------------------------
00009C                00262 USER_DIN_NotifyToggle
                      00263         extern  _DIN_NotifyToggle
                      00264 
00009C EE03 F07F      00265         lfsr    FSR0, STACK_HEAD        ; initialize stack
0000A0 EE23 F07F      00266         lfsr    FSR2, STACK_HEAD
                      00267 
0000A4 C004 FFED      00268         movff   MIOS_PARAMETER2, POSTDEC0
                      00269         ;; button number still in WREG
0000A8 EF?? F???      00270         goto    _DIN_NotifyToggle
                      00271 
                      00272 
                      00273 ;; --------------------------------------------------------------------------
                      00274 ;;  This function is called by MIOS when an encoder has been moved
                      00275 ;;  Input:
                      00276 ;;     o Encoder number in WREG and MIOS_PARAMETER1
                      00277 ;;     o signed incrementer value in MIOS_PARAMETER2:
                      00278 ;;       - is positive when encoder has been turned clockwise
gpasm-0.14.3 #861 (Oct 28 2012) mios_wrapper\   11-16-2013  11:38:41        PAGE 33


LOC  OBJECT CODE     LINE SOURCE TEXT
  VALUE

                      00279 ;;       - is negative when encoder has been turned counter clockwise
                      00280 ;; --------------------------------------------------------------------------
0000AC                00281 USER_ENC_NotifyChange
                      00282         extern  _ENC_NotifyChange
                      00283 
0000AC EE03 F07F      00284         lfsr    FSR0, STACK_HEAD        ; initialize stack
0000B0 EE23 F07F      00285         lfsr    FSR2, STACK_HEAD
                      00286 
0000B4 C004 FFED      00287         movff   MIOS_PARAMETER2, POSTDEC0
                      00288         ;; encoder number still in WREG
0000B8 EF?? F???      00289         goto    _ENC_NotifyChange
                      00290 
                      00291 
                      00292 ;; --------------------------------------------------------------------------
                      00293 ;;  This function is called by MIOS before the shift register are loaded
                      00294 ;;  Note that this is an interrupt service routine! Use FSR2 instead of FSR0
                      00295 ;;  and IRQ_TMPx instead of TMPx -- and make the routine as fast as possible
                      00296 ;; --------------------------------------------------------------------------
0000BC                00297 USER_SR_Service_Prepare
                      00298         extern  _SR_Service_Prepare
                      00299 
0000BC EE23 F03F      00300         lfsr    FSR2, STACK_IRQ_HEAD    ; initialize IRQ stack
0000C0 CFE9 FFDD      00301         movff   FSR0L, POSTDEC2         ; save FSR0[LH] on IRQ stack
0000C4 CFEA FFDD      00302         movff   FSR0H, POSTDEC2
0000C8 EE03 F03D      00303         lfsr    FSR0, STACK_IRQ_HEAD-2  ; write stack pointer also to FSR0
0000CC EC?? F???      00304         call    _SR_Service_Prepare     ; call C hook
0000D0 C33F FFE9      00305         movff   STACK_IRQ_HEAD-0, FSR0L ; restore FSR0[LH] directly from memory (more fail save)
0000D4 C33E FFEA      00306         movff   STACK_IRQ_HEAD-1, FSR0H ; restore FSR0[LH] directly from memory (more fail save)
0000D8 0012           00307         return
                      00308 
                      00309 
                      00310 ;; --------------------------------------------------------------------------
                      00311 ;;  This function is called by MIOS after the shift register have been loaded
                      00312 ;;  Note that this is an interrupt service routine! Use FSR2 instead of FSR0
                      00313 ;;  and IRQ_TMPx instead of TMPx -- and make the routine as fast as possible
                      00314 ;; --------------------------------------------------------------------------
0000DA                00315 USER_SR_Service_Finish
                      00316         extern  _SR_Service_Finish
                      00317 
0000DA EE23 F03F      00318         lfsr    FSR2, STACK_IRQ_HEAD    ; initialize IRQ stack
0000DE CFE9 FFDD      00319         movff   FSR0L, POSTDEC2         ; save FSR0[LH] on IRQ stack
0000E2 CFEA FFDD      00320         movff   FSR0H, POSTDEC2
0000E6 EE03 F03D      00321         lfsr    FSR0, STACK_IRQ_HEAD-2  ; write stack pointer also to FSR0
0000EA EC?? F???      00322         call    _SR_Service_Finish      ; call C hook
0000EE C33F FFE9      00323         movff   STACK_IRQ_HEAD-0, FSR0L ; restore FSR0[LH] directly from memory (more fail save)
0000F2 C33E FFEA      00324         movff   STACK_IRQ_HEAD-1, FSR0H ; restore FSR0[LH] directly from memory (more fail save)
0000F6 0012           00325         return
                      00326 
                      00327 ;; --------------------------------------------------------------------------
                      00328 ;;  This function is called by MIOS when a pot has been moved
                      00329 ;;  Input:
                      00330 ;;     o Pot number in WREG and MIOS_PARAMETER1
                      00331 ;;     o LSB value in MIOS_PARAMETER2
gpasm-0.14.3 #861 (Oct 28 2012) mios_wrapper\   11-16-2013  11:38:41        PAGE 34


LOC  OBJECT CODE     LINE SOURCE TEXT
  VALUE

                      00332 ;;     o MSB value in MIOS_PARAMETER3
                      00333 ;; --------------------------------------------------------------------------
0000F8                00334 USER_AIN_NotifyChange
                      00335         extern  _AIN_NotifyChange
                      00336 
0000F8 EE03 F07F      00337         lfsr    FSR0, STACK_HEAD        ; initialize stack
0000FC EE23 F07F      00338         lfsr    FSR2, STACK_HEAD
                      00339 
000100 C005 FFED      00340         movff   MIOS_PARAMETER3, POSTDEC0
000104 C004 FFED      00341         movff   MIOS_PARAMETER2, POSTDEC0
                      00342         ;; pot number still in WREG
000108 EF?? F???      00343         goto    _AIN_NotifyChange
                      00344 
                      00345 
                      00346 
                      00347 ;; --------------------------------------------------------------------------
                      00348 ;; ==========================================================================
                      00349 ;;  LINKS TO THE MIOS FUNCTIONS
                      00350 ;; ==========================================================================
                      00351 ;; --------------------------------------------------------------------------
                      00352 
                      00353 .MIOS_MIDI_BeginStream code MIOS_MIDI_BeginStream
002C00                00354 _MIOS_MIDI_BeginStream
                      00355         global  _MIOS_MIDI_BeginStream
                      00356 
                      00357 ;; --------------------------------------------------------------------------
                      00358 .MIOS_MIDI_DeviceIDAutoSet code MIOS_MIDI_DeviceIDAutoSet
002C04                00359 _MIOS_MIDI_DeviceIDAutoSet
                      00360         global  _MIOS_MIDI_DeviceIDAutoSet
                      00361 
                      00362 ;; --------------------------------------------------------------------------
                      00363 .MIOS_MIDI_DeviceIDGet code MIOS_MIDI_DeviceIDGet
002C08                00364 _MIOS_MIDI_DeviceIDGet
                      00365         global  _MIOS_MIDI_DeviceIDGet
                      00366 
                      00367 ;; --------------------------------------------------------------------------
                      00368 .MIOS_MIDI_DeviceIDSet code MIOS_MIDI_DeviceIDSet
002C0C                00369 _MIOS_MIDI_DeviceIDSet
                      00370         global  _MIOS_MIDI_DeviceIDSet
                      00371 
                      00372 ;; --------------------------------------------------------------------------
                      00373 .MIOS_MIDI_EndStream code MIOS_MIDI_EndStream
002C10                00374 _MIOS_MIDI_EndStream
                      00375         global  _MIOS_MIDI_EndStream
                      00376 
                      00377 ;; --------------------------------------------------------------------------
                      00378 .MIOS_MIDI_Init code MIOS_MIDI_Init
002C14                00379 _MIOS_MIDI_Init
                      00380         global  _MIOS_MIDI_Init
                      00381 
                      00382 ;; --------------------------------------------------------------------------
                      00383 .MIOS_MIDI_InterfaceAutoSet code MIOS_MIDI_InterfaceAutoSet
002C18                00384 _MIOS_MIDI_InterfaceAutoSet
gpasm-0.14.3 #861 (Oct 28 2012) mios_wrapper\   11-16-2013  11:38:41        PAGE 35


LOC  OBJECT CODE     LINE SOURCE TEXT
  VALUE

                      00385         global  _MIOS_MIDI_InterfaceAutoSet
                      00386 
                      00387 ;; --------------------------------------------------------------------------
                      00388 .MIOS_MIDI_InterfaceGet code MIOS_MIDI_InterfaceGet
002C1C                00389 _MIOS_MIDI_InterfaceGet
                      00390         global  _MIOS_MIDI_InterfaceGet
                      00391 
                      00392 ;; --------------------------------------------------------------------------
                      00393 .MIOS_MIDI_InterfaceSet code MIOS_MIDI_InterfaceSet
002C20                00394 _MIOS_MIDI_InterfaceSet
                      00395         global  _MIOS_MIDI_InterfaceSet
                      00396 
                      00397 ;; --------------------------------------------------------------------------
                      00398 .MIOS_MIDI_MergerGet code MIOS_MIDI_MergerGet
002C24                00399 _MIOS_MIDI_MergerGet
                      00400         global  _MIOS_MIDI_MergerGet
                      00401 
                      00402 ;; --------------------------------------------------------------------------
                      00403 .MIOS_MIDI_MergerSet code MIOS_MIDI_MergerSet
002C28                00404 _MIOS_MIDI_MergerSet
                      00405         global  _MIOS_MIDI_MergerSet
                      00406 
                      00407 ;; --------------------------------------------------------------------------
                      00408 .MIOS_MIDI_RxBufferFree code MIOS_MIDI_RxBufferFree
002C2C                00409 _MIOS_MIDI_RxBufferFree
                      00410         global  _MIOS_MIDI_RxBufferFree
                      00411 
                      00412 ;; --------------------------------------------------------------------------
                      00413 .MIOS_MIDI_RxBufferGet code MIOS_MIDI_RxBufferGet
002C30                00414 _MIOS_MIDI_RxBufferGet
                      00415         global  _MIOS_MIDI_RxBufferGet
                      00416 
                      00417 ;; --------------------------------------------------------------------------
                      00418 .MIOS_MIDI_RxBufferPut code MIOS_MIDI_RxBufferPut
002C34                00419 _MIOS_MIDI_RxBufferPut
                      00420         global  _MIOS_MIDI_RxBufferPut
                      00421 
                      00422 ;; --------------------------------------------------------------------------
                      00423 .MIOS_MIDI_RxBufferUsed code MIOS_MIDI_RxBufferUsed
002C38                00424 _MIOS_MIDI_RxBufferUsed
                      00425         global  _MIOS_MIDI_RxBufferUsed
                      00426 
                      00427 ;; --------------------------------------------------------------------------
                      00428 .MIOS_MIDI_TxBufferFlush code MIOS_MIDI_TxBufferFlush
002C3C                00429 _MIOS_MIDI_TxBufferFlush
                      00430         global  _MIOS_MIDI_TxBufferFlush
                      00431 
                      00432 ;; --------------------------------------------------------------------------
                      00433 .MIOS_MIDI_TxBufferFree code MIOS_MIDI_TxBufferFree
002C40                00434 _MIOS_MIDI_TxBufferFree
                      00435         global  _MIOS_MIDI_TxBufferFree
                      00436 
                      00437 ;; --------------------------------------------------------------------------
gpasm-0.14.3 #861 (Oct 28 2012) mios_wrapper\   11-16-2013  11:38:41        PAGE 36


LOC  OBJECT CODE     LINE SOURCE TEXT
  VALUE

                      00438 .MIOS_MIDI_TxBufferGet code MIOS_MIDI_TxBufferGet
002C44                00439 _MIOS_MIDI_TxBufferGet
                      00440         global  _MIOS_MIDI_TxBufferGet
                      00441 
                      00442 ;; --------------------------------------------------------------------------
                      00443 .MIOS_MIDI_TxBufferPut code MIOS_MIDI_TxBufferPut
002C48                00444 _MIOS_MIDI_TxBufferPut
                      00445         global  _MIOS_MIDI_TxBufferPut
                      00446 
                      00447 ;; --------------------------------------------------------------------------
                      00448 .MIOS_MIDI_TxBufferUsed code MIOS_MIDI_TxBufferUsed
002C4C                00449 _MIOS_MIDI_TxBufferUsed
                      00450         global  _MIOS_MIDI_TxBufferUsed
                      00451 
                      00452 ;; --------------------------------------------------------------------------
                      00453 .MIOS_MPROC_MergerDisable code MIOS_MPROC_MergerDisable
002C50                00454 _MIOS_MPROC_MergerDisable
                      00455         global  _MIOS_MPROC_MergerDisable
                      00456 
                      00457 ;; --------------------------------------------------------------------------
                      00458 .MIOS_MPROC_MergerEnable code MIOS_MPROC_MergerEnable
002C54                00459 _MIOS_MPROC_MergerEnable
                      00460         global  _MIOS_MPROC_MergerEnable
                      00461 
                      00462 ;; --------------------------------------------------------------------------
                      00463 .MIOS_MPROC_MergerGet code MIOS_MPROC_MergerGet
002C58                00464 _MIOS_MPROC_MergerGet
                      00465         global  _MIOS_MPROC_MergerGet
                      00466 
                      00467 ;; --------------------------------------------------------------------------
                      00468 .MIOS_AIN_DeadbandGet code MIOS_AIN_DeadbandGet
002C5C                00469 _MIOS_AIN_DeadbandGet
                      00470         global  _MIOS_AIN_DeadbandGet
                      00471 
                      00472 ;; --------------------------------------------------------------------------
                      00473 .MIOS_AIN_DeadbandSet code MIOS_AIN_DeadbandSet
002C60                00474 _MIOS_AIN_DeadbandSet
                      00475         global  _MIOS_AIN_DeadbandSet
                      00476 
                      00477 ;; --------------------------------------------------------------------------
                      00478 .MIOS_AIN_Muxed code MIOS_AIN_Muxed
002C64                00479 _MIOS_AIN_Muxed
                      00480         global  _MIOS_AIN_Muxed
                      00481 
                      00482 ;; --------------------------------------------------------------------------
                      00483 .MIOS_AIN_NumberGet code MIOS_AIN_NumberGet
002C68                00484 _MIOS_AIN_NumberGet
                      00485         global  _MIOS_AIN_NumberGet
                      00486 
                      00487 ;; --------------------------------------------------------------------------
                      00488 .MIOS_AIN_NumberSet code MIOS_AIN_NumberSet
002C6C                00489 _MIOS_AIN_NumberSet
                      00490         global  _MIOS_AIN_NumberSet
gpasm-0.14.3 #861 (Oct 28 2012) mios_wrapper\   11-16-2013  11:38:41        PAGE 37


LOC  OBJECT CODE     LINE SOURCE TEXT
  VALUE

                      00491 
                      00492 ;; --------------------------------------------------------------------------
                      00493 .MIOS_AIN_Pin7bitGet code MIOS_AIN_Pin7bitGet
002C70                00494 _MIOS_AIN_Pin7bitGet
                      00495         global  _MIOS_AIN_Pin7bitGet
                      00496 
                      00497 ;; --------------------------------------------------------------------------
                      00498 .MIOS_AIN_PinGet code
000000                00499 _MIOS_AIN_PinGet
                      00500         global  _MIOS_AIN_PinGet
                      00501 
000000 EC3A F016      00502         call    MIOS_AIN_PinGet
000004 C004 FFF3      00503         movff   MIOS_PARAMETER2, PRODL  ; high byte -> PRODL
000008 0012           00504         return                          ; low byte already in WREG
                      00505 
                      00506 ;; --------------------------------------------------------------------------
                      00507 .MIOS_AIN_PinLSBGet code MIOS_AIN_PinLSBGet
002C78                00508 _MIOS_AIN_PinLSBGet
                      00509         global  _MIOS_AIN_PinLSBGet
                      00510 
                      00511 ;; --------------------------------------------------------------------------
                      00512 .MIOS_AIN_PinMSBGet code MIOS_AIN_PinMSBGet
002C7C                00513 _MIOS_AIN_PinMSBGet
                      00514         global  _MIOS_AIN_PinMSBGet
                      00515 
                      00516 ;; --------------------------------------------------------------------------
                      00517 .MIOS_AIN_UnMuxed code MIOS_AIN_UnMuxed
002C80                00518 _MIOS_AIN_UnMuxed
                      00519         global  _MIOS_AIN_UnMuxed
                      00520 
                      00521 ;; --------------------------------------------------------------------------
                      00522 .MIOS_MF_PWM_DutyCycleDownGet code MIOS_MF_PWM_DutyCycleDownGet
002C84                00523 _MIOS_MF_PWM_DutyCycleDownGet
                      00524         global  _MIOS_MF_PWM_DutyCycleDownGet
                      00525 
                      00526 ;; --------------------------------------------------------------------------
                      00527 .MIOS_MF_PWM_DutyCycleDownSet code MIOS_MF_PWM_DutyCycleDownSet
002C88                00528 _MIOS_MF_PWM_DutyCycleDownSet
                      00529         global  _MIOS_MF_PWM_DutyCycleDownSet
                      00530 
                      00531 ;; --------------------------------------------------------------------------
                      00532 .MIOS_MF_PWM_DutyCycleUpGet code MIOS_MF_PWM_DutyCycleUpGet
002C8C                00533 _MIOS_MF_PWM_DutyCycleUpGet
                      00534         global  _MIOS_MF_PWM_DutyCycleUpGet
                      00535 
                      00536 ;; --------------------------------------------------------------------------
                      00537 .MIOS_MF_PWM_DutyCycleUpSet code MIOS_MF_PWM_DutyCycleUpSet
002C90                00538 _MIOS_MF_PWM_DutyCycleUpSet
                      00539         global  _MIOS_MF_PWM_DutyCycleUpSet
                      00540 
                      00541 ;; --------------------------------------------------------------------------
                      00542 .MIOS_MF_DeadbandGet code MIOS_MF_DeadbandGet
002C94                00543 _MIOS_MF_DeadbandGet
gpasm-0.14.3 #861 (Oct 28 2012) mios_wrapper\   11-16-2013  11:38:41        PAGE 38


LOC  OBJECT CODE     LINE SOURCE TEXT
  VALUE

                      00544         global  _MIOS_MF_DeadbandGet
                      00545 
                      00546 ;; --------------------------------------------------------------------------
                      00547 .MIOS_MF_DeadbandSet code MIOS_MF_DeadbandSet
002C98                00548 _MIOS_MF_DeadbandSet
                      00549         global  _MIOS_MF_DeadbandSet
                      00550 
                      00551 ;; --------------------------------------------------------------------------
                      00552 .MIOS_MF_Disable code MIOS_MF_Disable
002C9C                00553 _MIOS_MF_Disable
                      00554         global  _MIOS_MF_Disable
                      00555 
                      00556 ;; --------------------------------------------------------------------------
                      00557 .MIOS_MF_Enable code MIOS_MF_Enable
002CA0                00558 _MIOS_MF_Enable
                      00559         global  _MIOS_MF_Enable
                      00560 
                      00561 ;; --------------------------------------------------------------------------
                      00562 .MIOS_MF_FaderMove code
000000                00563 _MIOS_MF_FaderMove
                      00564         global  _MIOS_MF_FaderMove
                      00565 
000000 CFE9 FFD9      00566         movff   FSR0L, FSR2L
000004 CFDC F003      00567         movff   PREINC2, MIOS_PARAMETER1
000008 CFDC F004      00568         movff   PREINC2, MIOS_PARAMETER2
00000C EF52 F016      00569         goto    MIOS_MF_FaderMove
                      00570 
                      00571 ;; --------------------------------------------------------------------------
                      00572 .MIOS_MF_SuspendDisable code MIOS_MF_SuspendDisable
002CA8                00573 _MIOS_MF_SuspendDisable
                      00574         global  _MIOS_MF_SuspendDisable
                      00575 
                      00576 ;; --------------------------------------------------------------------------
                      00577 .MIOS_MF_SuspendEnable code MIOS_MF_SuspendEnable
002CAC                00578 _MIOS_MF_SuspendEnable
                      00579         global  _MIOS_MF_SuspendEnable
                      00580 
                      00581 ;; --------------------------------------------------------------------------
                      00582 .MIOS_MF_SuspendGet code MIOS_MF_SuspendGet
002CB0                00583 _MIOS_MF_SuspendGet
                      00584         global  _MIOS_MF_SuspendGet
                      00585 
                      00586 ;; --------------------------------------------------------------------------
                      00587 .MIOS_MF_PWM_PeriodGet code MIOS_MF_PWM_PeriodGet
002DFC                00588 _MIOS_MF_PWM_PeriodGet
                      00589         global  _MIOS_MF_PWM_PeriodGet
                      00590 
                      00591 ;; --------------------------------------------------------------------------
                      00592 .MIOS_MF_PWM_PeriodSet code MIOS_MF_PWM_PeriodSet
002E00                00593 _MIOS_MF_PWM_PeriodSet
                      00594         global  _MIOS_MF_PWM_PeriodSet
                      00595 
                      00596 ;; --------------------------------------------------------------------------
gpasm-0.14.3 #861 (Oct 28 2012) mios_wrapper\   11-16-2013  11:38:41        PAGE 39


LOC  OBJECT CODE     LINE SOURCE TEXT
  VALUE

                      00597 .MIOS_MF_TouchDetectionReset code MIOS_MF_TouchDetectionReset
002E2C                00598 _MIOS_MF_TouchDetectionReset
                      00599         global  _MIOS_MF_TouchDetectionReset
                      00600 
                      00601 ;; --------------------------------------------------------------------------
                      00602 .MIOS_DIN_PinGet code MIOS_DIN_PinGet
002CB4                00603 _MIOS_DIN_PinGet
                      00604         global  _MIOS_DIN_PinGet
                      00605 
                      00606 ;; --------------------------------------------------------------------------
                      00607 .MIOS_DIN_SRGet code MIOS_DIN_SRGet
002CB8                00608 _MIOS_DIN_SRGet
                      00609         global  _MIOS_DIN_SRGet
                      00610 
                      00611 ;; --------------------------------------------------------------------------
                      00612 .MIOS_DOUT_PinGet code MIOS_DOUT_PinGet
002CBC                00613 _MIOS_DOUT_PinGet
                      00614         global  _MIOS_DOUT_PinGet
                      00615 
                      00616 ;; --------------------------------------------------------------------------
                      00617 .MIOS_DOUT_PinSet code
000000                00618 _MIOS_DOUT_PinSet
                      00619         global  _MIOS_DOUT_PinSet
                      00620 
000000 CFE9 FFD9      00621         movff   FSR0L, FSR2L
000004 CFDC F003      00622         movff   PREINC2, MIOS_PARAMETER1
000008 EF60 F016      00623         goto    MIOS_DOUT_PinSet
                      00624 
                      00625 
                      00626 ;; --------------------------------------------------------------------------
                      00627 .MIOS_DOUT_PinSet0 code MIOS_DOUT_PinSet0
002CC4                00628 _MIOS_DOUT_PinSet0
                      00629         global  _MIOS_DOUT_PinSet0
                      00630 
                      00631 ;; --------------------------------------------------------------------------
                      00632 .MIOS_DOUT_PinSet1 code MIOS_DOUT_PinSet1
002CC8                00633 _MIOS_DOUT_PinSet1
                      00634         global  _MIOS_DOUT_PinSet1
                      00635 
                      00636 ;; --------------------------------------------------------------------------
                      00637 .MIOS_DOUT_SRGet code MIOS_DOUT_SRGet
002CCC                00638 _MIOS_DOUT_SRGet
                      00639         global  _MIOS_DOUT_SRGet
                      00640 
                      00641 ;; --------------------------------------------------------------------------
                      00642 .MIOS_DOUT_SRSet code
000000                00643 _MIOS_DOUT_SRSet
                      00644         global  _MIOS_DOUT_SRSet
                      00645         
000000 CFE9 FFD9      00646         movff   FSR0L, FSR2L
000004 CFDC F003      00647         movff   PREINC2, MIOS_PARAMETER1
000008 EF68 F016      00648         goto    MIOS_DOUT_SRSet
                      00649 
gpasm-0.14.3 #861 (Oct 28 2012) mios_wrapper\   11-16-2013  11:38:41        PAGE 40


LOC  OBJECT CODE     LINE SOURCE TEXT
  VALUE

                      00650 ;; --------------------------------------------------------------------------
                      00651 .MIOS_ENC_Abs7bitAdd code
000000                00652 _MIOS_ENC_Abs7bitAdd
                      00653         global  _MIOS_ENC_Abs7bitAdd
                      00654         
000000 CFE9 FFD9      00655         movff   FSR0L, FSR2L
000004 CFDC F003      00656         movff   PREINC2, MIOS_PARAMETER1
000008 EF6A F016      00657         goto    MIOS_ENC_Abs7bitAdd
                      00658         
                      00659 ;; --------------------------------------------------------------------------
                      00660 .MIOS_ENC_Abs7bitGet code MIOS_ENC_Abs7bitGet
002CD8                00661 _MIOS_ENC_Abs7bitGet
                      00662         global  _MIOS_ENC_Abs7bitGet
                      00663 
                      00664 ;; --------------------------------------------------------------------------
                      00665 .MIOS_ENC_Abs7bitSet code
000000                00666 _MIOS_ENC_Abs7bitSet
                      00667         global  _MIOS_ENC_Abs7bitSet
                      00668 
000000 CFE9 FFD9      00669         movff   FSR0L, FSR2L
000004 CFDC F003      00670         movff   PREINC2, MIOS_PARAMETER1
000008 EF6E F016      00671         goto    MIOS_ENC_Abs7bitSet
                      00672 
                      00673 ;; --------------------------------------------------------------------------
                      00674 .MIOS_ENC_NumberGet code MIOS_ENC_NumberGet
002CE0                00675 _MIOS_ENC_NumberGet
                      00676         global  _MIOS_ENC_NumberGet
                      00677 
                      00678 ;; --------------------------------------------------------------------------
                      00679 .MIOS_ENC_SpeedGet code
000000                00680 _MIOS_ENC_SpeedGet
                      00681         global  _MIOS_ENC_SpeedGet
                      00682 
000000 CFE9 FFD9      00683         movff   FSR0L, FSR2L
000004 CFDC F003      00684         movff   PREINC2, MIOS_PARAMETER1
000008 EF72 F016      00685         goto    MIOS_ENC_SpeedGet
                      00686 
                      00687 ;; --------------------------------------------------------------------------
                      00688 .MIOS_ENC_SpeedSet code
000000                00689 _MIOS_ENC_SpeedSet
                      00690         global  _MIOS_ENC_SpeedSet
                      00691 
000000 CFE9 FFD9      00692         movff   FSR0L, FSR2L
000004 CFDC F003      00693         movff   PREINC2, MIOS_PARAMETER1
000008 CFDC F004      00694         movff   PREINC2, MIOS_PARAMETER2
00000C EF74 F016      00695         goto    MIOS_ENC_SpeedSet
                      00696 
                      00697 ;; --------------------------------------------------------------------------
                      00698 .MIOS_SRIO_NumberGet code MIOS_SRIO_NumberGet
002CEC                00699 _MIOS_SRIO_NumberGet
                      00700         global  _MIOS_SRIO_NumberGet
                      00701 
                      00702 ;; --------------------------------------------------------------------------
gpasm-0.14.3 #861 (Oct 28 2012) mios_wrapper\   11-16-2013  11:38:41        PAGE 41


LOC  OBJECT CODE     LINE SOURCE TEXT
  VALUE

                      00703 .MIOS_SRIO_NumberSet code MIOS_SRIO_NumberSet
002CF0                00704 _MIOS_SRIO_NumberSet
                      00705         global  _MIOS_SRIO_NumberSet
                      00706 
                      00707 ;; --------------------------------------------------------------------------
                      00708 .MIOS_SRIO_TS_SensitivityGet code MIOS_SRIO_TS_SensitivityGet
002CF4                00709 _MIOS_SRIO_TS_SensitivityGet
                      00710         global  _MIOS_SRIO_TS_SensitivityGet
                      00711 
                      00712 ;; --------------------------------------------------------------------------
                      00713 .MIOS_SRIO_TS_SensitivitySet code MIOS_SRIO_TS_SensitivitySet
002CF8                00714 _MIOS_SRIO_TS_SensitivitySet
                      00715         global  _MIOS_SRIO_TS_SensitivitySet
                      00716 
                      00717 ;; --------------------------------------------------------------------------
                      00718 .MIOS_SRIO_UpdateFrqGet code MIOS_SRIO_UpdateFrqGet
002CFC                00719 _MIOS_SRIO_UpdateFrqGet
                      00720         global  _MIOS_SRIO_UpdateFrqGet
                      00721 
                      00722 ;; --------------------------------------------------------------------------
                      00723 .MIOS_SRIO_UpdateFrqSet code MIOS_SRIO_UpdateFrqSet
002D00                00724 _MIOS_SRIO_UpdateFrqSet
                      00725         global  _MIOS_SRIO_UpdateFrqSet
                      00726 
                      00727 ;; --------------------------------------------------------------------------
                      00728 .MIOS_SRIO_DebounceGet code MIOS_SRIO_DebounceGet
002E28                00729 _MIOS_SRIO_DebounceGet
                      00730         global  _MIOS_SRIO_DebounceGet
                      00731 
                      00732 ;; --------------------------------------------------------------------------
                      00733 .MIOS_SRIO_DebounceSet code MIOS_SRIO_DebounceSet
002E24                00734 _MIOS_SRIO_DebounceSet
                      00735         global  _MIOS_SRIO_DebounceSet
                      00736 
                      00737 ;; --------------------------------------------------------------------------
                      00738 .MIOS_LCD_Clear code MIOS_LCD_Clear
002D04                00739 _MIOS_LCD_Clear
                      00740         global  _MIOS_LCD_Clear
                      00741 
                      00742 ;; --------------------------------------------------------------------------
                      00743 .MIOS_LCD_Cmd code MIOS_LCD_Cmd
002D08                00744 _MIOS_LCD_Cmd
                      00745         global  _MIOS_LCD_Cmd
                      00746 
                      00747 ;; --------------------------------------------------------------------------
                      00748 .MIOS_LCD_CursorGet code MIOS_LCD_CursorGet
002D0C                00749 _MIOS_LCD_CursorGet
                      00750         global  _MIOS_LCD_CursorGet
                      00751 
                      00752 ;; --------------------------------------------------------------------------
                      00753 .MIOS_LCD_CursorSet code MIOS_LCD_CursorSet
002D10                00754 _MIOS_LCD_CursorSet
                      00755         global  _MIOS_LCD_CursorSet
gpasm-0.14.3 #861 (Oct 28 2012) mios_wrapper\   11-16-2013  11:38:41        PAGE 42


LOC  OBJECT CODE     LINE SOURCE TEXT
  VALUE

                      00756 
                      00757 ;; --------------------------------------------------------------------------
                      00758 .MIOS_LCD_Data code MIOS_LCD_Data
002D14                00759 _MIOS_LCD_Data
                      00760         global  _MIOS_LCD_Data
                      00761 
                      00762 ;; --------------------------------------------------------------------------
                      00763 .MIOS_LCD_Init code MIOS_LCD_Init
002D18                00764 _MIOS_LCD_Init
                      00765         global  _MIOS_LCD_Init
                      00766 
                      00767 ;; --------------------------------------------------------------------------
                      00768 .MIOS_LCD_PrintBCD1 code MIOS_LCD_PrintBCD1
002D1C                00769 _MIOS_LCD_PrintBCD1
                      00770         global  _MIOS_LCD_PrintBCD1
                      00771 
                      00772 ;; --------------------------------------------------------------------------
                      00773 .MIOS_LCD_PrintBCD2 code MIOS_LCD_PrintBCD2
002D20                00774 _MIOS_LCD_PrintBCD2
                      00775         global  _MIOS_LCD_PrintBCD2
                      00776 
                      00777 ;; --------------------------------------------------------------------------
                      00778 .MIOS_LCD_PrintBCD3 code MIOS_LCD_PrintBCD3
002D24                00779 _MIOS_LCD_PrintBCD3
                      00780         global  _MIOS_LCD_PrintBCD3
                      00781 
                      00782 ;; --------------------------------------------------------------------------
                      00783 .MIOS_LCD_PrintBCD4 code
000000                00784 _MIOS_LCD_PrintBCD4
                      00785         global  _MIOS_LCD_PrintBCD4
                      00786 
000000 CFE9 FFD9      00787         movff   FSR0L, FSR2L
000004 CFDC F003      00788         movff   PREINC2, MIOS_PARAMETER1
000008 EFF6 F016      00789         goto    MIOS_LCD_PrintBCD4
                      00790 
                      00791 ;; --------------------------------------------------------------------------
                      00792 .MIOS_LCD_PrintBCD5 code
000000                00793 _MIOS_LCD_PrintBCD5
                      00794         global  _MIOS_LCD_PrintBCD5
                      00795 
000000 CFE9 FFD9      00796         movff   FSR0L, FSR2L
000004 CFDC F003      00797         movff   PREINC2, MIOS_PARAMETER1
000008 EFF8 F016      00798         goto    MIOS_LCD_PrintBCD5
                      00799 
                      00800 ;; --------------------------------------------------------------------------
                      00801 .MIOS_LCD_PrintChar code MIOS_LCD_PrintChar
002D28                00802 _MIOS_LCD_PrintChar
                      00803         global  _MIOS_LCD_PrintChar
                      00804 
                      00805 ;; --------------------------------------------------------------------------
                      00806 .MIOS_LCD_PrintHex1 code MIOS_LCD_PrintHex1
002D2C                00807 _MIOS_LCD_PrintHex1
                      00808         global  _MIOS_LCD_PrintHex1
gpasm-0.14.3 #861 (Oct 28 2012) mios_wrapper\   11-16-2013  11:38:41        PAGE 43


LOC  OBJECT CODE     LINE SOURCE TEXT
  VALUE

                      00809 
                      00810 ;; --------------------------------------------------------------------------
                      00811 .MIOS_LCD_PrintHex2 code MIOS_LCD_PrintHex2
002D30                00812 _MIOS_LCD_PrintHex2
                      00813         global  _MIOS_LCD_PrintHex2
                      00814 
                      00815 ;; --------------------------------------------------------------------------
                      00816 .MIOS_LCD_PrintMessage code
000000                00817 _MIOS_LCD_PrintMessage
                      00818         global  _MIOS_LCD_PrintMessage
                      00819 
000000 6EF6           00820         movwf   TBLPTRL
000002 CFE9 FFD9      00821         movff   FSR0L, FSR2L
000006 CFDC FFF7      00822         movff   PREINC2, TBLPTRH
00000A CFDC FFF8      00823         movff   PREINC2, TBLPTRU
00000E EF9A F016      00824         goto    MIOS_LCD_PrintMessage
                      00825 
                      00826 ;; --------------------------------------------------------------------------
                      00827 .MIOS_LCD_PrintPreconfString code
000000                00828 _MIOS_LCD_PrintPreconfString
                      00829         global  _MIOS_LCD_PrintPreconfString
                      00830 
000000 CFE9 FFD9      00831         movff   FSR0L, FSR2L
000004 CFDC FFF8      00832         movff   PREINC2, TBLPTRU
000008 CFDC FFF7      00833         movff   PREINC2, TBLPTRH
00000C CFDC FFF6      00834         movff   PREINC2, TBLPTRL
000010 EF9C F016      00835         goto    MIOS_LCD_PrintPreconfString
                      00836 
                      00837 ;; --------------------------------------------------------------------------
                      00838 .MIOS_LCD_PrintString code
000000                00839 _MIOS_LCD_PrintString
                      00840         global  _MIOS_LCD_PrintString
                      00841 
000000 6EF6           00842         movwf   TBLPTRL
000002 CFE9 FFD9      00843         movff   FSR0L, FSR2L
000006 CFDC FFF7      00844         movff   PREINC2, TBLPTRH
00000A CFDC FFF8      00845         movff   PREINC2, TBLPTRU
00000E EF9E F016      00846         goto    MIOS_LCD_PrintString
                      00847 
                      00848 ;; --------------------------------------------------------------------------
                      00849 .MIOS_LCD_TypeAutoSet code MIOS_LCD_TypeAutoSet
002D40                00850 _MIOS_LCD_TypeAutoSet
                      00851         global  _MIOS_LCD_TypeAutoSet
                      00852 
                      00853 ;; --------------------------------------------------------------------------
                      00854 .MIOS_LCD_TypeGet code MIOS_LCD_TypeGet
002D44                00855 _MIOS_LCD_TypeGet
                      00856         global  _MIOS_LCD_TypeGet
                      00857 
                      00858 ;; --------------------------------------------------------------------------
                      00859 .MIOS_LCD_TypeSet code
000000                00860 _MIOS_LCD_TypeSet
                      00861         global  _MIOS_LCD_TypeSet
gpasm-0.14.3 #861 (Oct 28 2012) mios_wrapper\   11-16-2013  11:38:41        PAGE 44


LOC  OBJECT CODE     LINE SOURCE TEXT
  VALUE

                      00862 
000000 CFE9 FFD9      00863         movff   FSR0L, FSR2L
000004 CFDC F003      00864         movff   PREINC2, MIOS_PARAMETER1
000008 CFDC F004      00865         movff   PREINC2, MIOS_PARAMETER2
00000C EFA4 F016      00866         goto    MIOS_LCD_TypeSet
                      00867 
                      00868 ;; --------------------------------------------------------------------------
                      00869 .MIOS_LCD_YAddressGet code
000000                00870 _MIOS_LCD_YAddressGet
                      00871         global  _MIOS_LCD_YAddressGet
000000 EFA6 F016      00872         goto    MIOS_LCD_YAddressGet
                      00873 
                      00874 ;; --------------------------------------------------------------------------
                      00875 .MIOS_LCD_YAddressSet code
000000                00876 _MIOS_LCD_YAddressSet
                      00877         global  _MIOS_LCD_YAddressSet
                      00878 
000000 CFE9 FFD9      00879         movff   FSR0L, FSR2L
000004 6E03           00880         movwf   MIOS_PARAMETER1
000006 CFDC F004      00881         movff   PREINC2, MIOS_PARAMETER2
00000A CFDC F005      00882         movff   PREINC2, MIOS_PARAMETER3
00000E 50DC           00883         movf    PREINC2, W
000010 EFA8 F016      00884         goto    MIOS_LCD_YAddressSet
                      00885 
                      00886 ;; --------------------------------------------------------------------------
                      00887 .MIOS_LCD_MessageStart code MIOS_LCD_MessageStart
002DF4                00888 _MIOS_LCD_MessageStart
                      00889         global  _MIOS_LCD_MessageStart
                      00890 
                      00891 ;; --------------------------------------------------------------------------
                      00892 .MIOS_LCD_MessageStop code MIOS_LCD_MessageStop
002DF8                00893 _MIOS_LCD_MessageStop
                      00894         global  _MIOS_LCD_MessageStop
                      00895 
                      00896 ;; --------------------------------------------------------------------------
                      00897 .MIOS_CLCD_SpecialCharInit code
000000                00898 _MIOS_CLCD_SpecialCharInit
                      00899         global  _MIOS_CLCD_SpecialCharInit
                      00900 
000000 CFE9 FFD9      00901         movff   FSR0L, FSR2L
000004 CFDC FFF6      00902         movff   PREINC2, TBLPTRL
000008 CFDC FFF7      00903         movff   PREINC2, TBLPTRH
00000C CFDC FFF8      00904         movff   PREINC2, TBLPTRU
000010 EFE4 F016      00905         goto    MIOS_CLCD_SpecialCharInit
                      00906 
                      00907 ;; --------------------------------------------------------------------------
                      00908 .MIOS_CLCD_SpecialCharsInit code
000000                00909 _MIOS_CLCD_SpecialCharsInit
                      00910         global  _MIOS_CLCD_SpecialCharsInit
                      00911 
000000 6EF6           00912         movwf   TBLPTRL
000002 CFE9 FFD9      00913         movff   FSR0L, FSR2L
000006 CFDC FFF7      00914         movff   PREINC2, TBLPTRH
gpasm-0.14.3 #861 (Oct 28 2012) mios_wrapper\   11-16-2013  11:38:41        PAGE 45


LOC  OBJECT CODE     LINE SOURCE TEXT
  VALUE

00000A CFDC FFF8      00915         movff   PREINC2, TBLPTRU
00000E EFE6 F016      00916         goto    MIOS_CLCD_SpecialCharsInit
                      00917 
                      00918 ;; --------------------------------------------------------------------------
                      00919 .MIOS_GLCD_FontInit code
000000                00920 _MIOS_GLCD_FontInit
                      00921         global  _MIOS_GLCD_FontInit
                      00922 
000000 6EF6           00923         movwf   TBLPTRL
000002 CFE9 FFD9      00924         movff   FSR0L, FSR2L
000006 CFDC FFF7      00925         movff   PREINC2, TBLPTRH
00000A CFDC FFF8      00926         movff   PREINC2, TBLPTRU
00000E EFAA F016      00927         goto    MIOS_GLCD_FontInit
                      00928 
                      00929 ;; --------------------------------------------------------------------------
                      00930 .MIOS_GLCD_GCursorGet code MIOS_GLCD_GCursorGet
002D58                00931 _MIOS_GLCD_GCursorGet
                      00932         global  _MIOS_GLCD_GCursorGet
                      00933 
                      00934 ;; --------------------------------------------------------------------------
                      00935 .MIOS_GLCD_GCursorSet code
000000                00936 _MIOS_GLCD_GCursorSet
                      00937         global  _MIOS_GLCD_GCursorSet
                      00938 
000000 CFE9 FFD9      00939         movff   FSR0L, FSR2L
000004 CFDC F003      00940         movff   PREINC2, MIOS_PARAMETER1
000008 EFAE F016      00941         goto    MIOS_GLCD_GCursorSet
                      00942 
                      00943 ;; --------------------------------------------------------------------------
                      00944 .MIOS_EEPROM_Read code
000000                00945 _MIOS_EEPROM_Read
                      00946         global  _MIOS_EEPROM_Read
                      00947 
000000 6EA9           00948         movwf   EEADR
000002 EFB0 F016      00949         goto    MIOS_EEPROM_Read
                      00950 
                      00951 ;; --------------------------------------------------------------------------
                      00952 .MIOS_EEPROM_Write code
000000                00953 _MIOS_EEPROM_Write
                      00954         global  _MIOS_EEPROM_Write
                      00955 
000000 6EA9           00956         movwf   EEADR
000002 CFE9 FFD9      00957         movff   FSR0L, FSR2L
000006 50DC           00958         movf    PREINC2, W
000008 EFB2 F016      00959         goto    MIOS_EEPROM_Write
                      00960 
                      00961 ;; --------------------------------------------------------------------------
                      00962 .MIOS_EEPROM_ReadPage code
000000                00963 _MIOS_EEPROM_ReadPage
                      00964         global  _MIOS_EEPROM_ReadPage
                      00965 
000000 6EA9           00966         movwf   EEADR
000002 CFE9 FFD9      00967         movff   FSR0L, FSR2L
gpasm-0.14.3 #861 (Oct 28 2012) mios_wrapper\   11-16-2013  11:38:41        PAGE 46


LOC  OBJECT CODE     LINE SOURCE TEXT
  VALUE

000006 CFDC FFE1      00968         movff   PREINC2, FSR1L
00000A CFDC FFE2      00969         movff   PREINC2, FSR1H
                      00970 
                      00971 #if PARAMETER_PASSING_TEST
                      00972         movlw   0x56
                      00973         cpfseq  EEADR, ACCESS
                      00974         return
                      00975 
                      00976         movlw   0x12
                      00977         cpfseq  FSR1L, ACCESS
                      00978         return
                      00979 
                      00980         movlw   0x03
                      00981         cpfseq  FSR1H, ACCESS
                      00982         return
                      00983 
                      00984         movlw   0x1a
                      00985         movwf   MIOS_PARAMETER1
                      00986         return
                      00987 #endif
                      00988 
00000E EF1A F017      00989         goto    MIOS_EEPROM_ReadPage
                      00990 
                      00991 ;; --------------------------------------------------------------------------
                      00992 .MIOS_EEPROM_WritePage code
000000                00993 _MIOS_EEPROM_WritePage
                      00994         global  _MIOS_EEPROM_WritePage
                      00995 
000000 6EA9           00996         movwf   EEADR
000002 CFE9 FFD9      00997         movff   FSR0L, FSR2L
000006 CFDC FFE1      00998         movff   PREINC2, FSR1L
00000A CFDC FFE2      00999         movff   PREINC2, FSR1H
                      01000 
                      01001 #if PARAMETER_PASSING_TEST
                      01002         movlw   0x56
                      01003         cpfseq  EEADR, ACCESS
                      01004         return
                      01005 
                      01006         movlw   0x12
                      01007         cpfseq  FSR1L, ACCESS
                      01008         return
                      01009 
                      01010         movlw   0x03
                      01011         cpfseq  FSR1H, ACCESS
                      01012         return
                      01013 
                      01014         movlw   0x1a
                      01015         movwf   MIOS_PARAMETER1
                      01016         return
                      01017 #endif
                      01018 
00000E EF1C F017      01019         goto    MIOS_EEPROM_WritePage
                      01020 
gpasm-0.14.3 #861 (Oct 28 2012) mios_wrapper\   11-16-2013  11:38:41        PAGE 47


LOC  OBJECT CODE     LINE SOURCE TEXT
  VALUE

                      01021 ;; --------------------------------------------------------------------------
                      01022 .MIOS_FLASH_Read code
000000                01023 _MIOS_FLASH_Read
                      01024         global  _MIOS_FLASH_Read
                      01025 
000000 6EF6           01026         movwf   TBLPTRL
000002 CFE9 FFD9      01027         movff   FSR0L, FSR2L
000006 CFDC FFF7      01028         movff   PREINC2, TBLPTRH
00000A CFDC FFF8      01029         movff   PREINC2, TBLPTRU
00000E CFDC FFE1      01030         movff   PREINC2, FSR1L
000012 CFDC FFE2      01031         movff   PREINC2, FSR1H
                      01032 
                      01033 #if PARAMETER_PASSING_TEST
                      01034         movlw   0x56
                      01035         cpfseq  TBLPTRL, ACCESS
                      01036         return
                      01037 
                      01038         movlw   0x78
                      01039         cpfseq  TBLPTRH, ACCESS
                      01040         return
                      01041 
                      01042         movlw   0x00
                      01043         cpfseq  TBLPTRU, ACCESS
                      01044         return
                      01045 
                      01046         movlw   0x12
                      01047         cpfseq  FSR1L, ACCESS
                      01048         return
                      01049 
                      01050         movlw   0x03
                      01051         cpfseq  FSR1H, ACCESS
                      01052         return
                      01053 
                      01054         movlw   0x1a
                      01055         movwf   MIOS_PARAMETER1
                      01056         return
                      01057 #endif
                      01058 
000016 EFB4 F016      01059         goto    MIOS_FLASH_Read
                      01060 
                      01061 ;; --------------------------------------------------------------------------
                      01062 .MIOS_FLASH_Write code
000000                01063 _MIOS_FLASH_Write
                      01064         global  _MIOS_FLASH_Write
                      01065 
000000 6EF6           01066         movwf   TBLPTRL
000002 CFE9 FFD9      01067         movff   FSR0L, FSR2L
000006 CFDC FFF7      01068         movff   PREINC2, TBLPTRH
00000A CFDC FFF8      01069         movff   PREINC2, TBLPTRU
00000E CFDC FFE1      01070         movff   PREINC2, FSR1L
000012 CFDC FFE2      01071         movff   PREINC2, FSR1H
                      01072 
                      01073 #if PARAMETER_PASSING_TEST
gpasm-0.14.3 #861 (Oct 28 2012) mios_wrapper\   11-16-2013  11:38:41        PAGE 48


LOC  OBJECT CODE     LINE SOURCE TEXT
  VALUE

                      01074         movlw   0x56
                      01075         cpfseq  TBLPTRL, ACCESS
                      01076         return
                      01077 
                      01078         movlw   0x78
                      01079         cpfseq  TBLPTRH, ACCESS
                      01080         return
                      01081 
                      01082         movlw   0x00
                      01083         cpfseq  TBLPTRU, ACCESS
                      01084         return
                      01085 
                      01086         movlw   0x12
                      01087         cpfseq  FSR1L, ACCESS
                      01088         return
                      01089 
                      01090         movlw   0x03
                      01091         cpfseq  FSR1H, ACCESS
                      01092         return
                      01093 
                      01094         movlw   0x1a
                      01095         movwf   MIOS_PARAMETER1
                      01096         return
                      01097 #endif
                      01098 
000016 EFB6 F016      01099         goto    MIOS_FLASH_Write
                      01100 
                      01101 ;; --------------------------------------------------------------------------
                      01102 .MIOS_BANKSTICK_Read code
000000                01103 _MIOS_BANKSTICK_Read
                      01104         global  _MIOS_BANKSTICK_Read
                      01105 
000000 6E03           01106         movwf   MIOS_PARAMETER1
000002 CFE9 FFD9      01107         movff   FSR0L, FSR2L
000006 CFDC F004      01108         movff   PREINC2, MIOS_PARAMETER2
                      01109 
                      01110 #if PARAMETER_PASSING_TEST
                      01111         movlw   0x12
                      01112         cpfseq  MIOS_PARAMETER1, ACCESS
                      01113         return
                      01114 
                      01115         movlw   0x34
                      01116         cpfseq  MIOS_PARAMETER2, ACCESS
                      01117         return
                      01118 
                      01119         movlw   0x1a
                      01120         movwf   MIOS_PARAMETER1
                      01121         return
                      01122 #endif
00000A EFB8 F016      01123         goto    MIOS_BANKSTICK_Read
                      01124 
                      01125 ;; --------------------------------------------------------------------------
                      01126 .MIOS_BANKSTICK_Write code
gpasm-0.14.3 #861 (Oct 28 2012) mios_wrapper\   11-16-2013  11:38:41        PAGE 49


LOC  OBJECT CODE     LINE SOURCE TEXT
  VALUE

000000                01127 _MIOS_BANKSTICK_Write
                      01128         global  _MIOS_BANKSTICK_Write
                      01129 
000000 6E03           01130         movwf   MIOS_PARAMETER1
000002 CFE9 FFD9      01131         movff   FSR0L, FSR2L
000006 CFDC F004      01132         movff   PREINC2, MIOS_PARAMETER2
00000A 50DC           01133         movf    PREINC2, W
                      01134 
                      01135 #if PARAMETER_PASSING_TEST
                      01136         movwf   TMP1
                      01137         movlw   0x56
                      01138         cpfseq  TMP1, ACCESS
                      01139         return
                      01140 
                      01141         movlw   0x12
                      01142         cpfseq  MIOS_PARAMETER1, ACCESS
                      01143         return
                      01144 
                      01145         movlw   0x34
                      01146         cpfseq  MIOS_PARAMETER2, ACCESS
                      01147         return
                      01148 
                      01149         movlw   0x1a
                      01150         movwf   MIOS_PARAMETER1
                      01151         return
                      01152 #endif
                      01153 
00000C EFBA F016      01154         goto    MIOS_BANKSTICK_Write
                      01155 
                      01156 ;; --------------------------------------------------------------------------
                      01157 .MIOS_BANKSTICK_CtrlSet code MIOS_BANKSTICK_CtrlSet
002DDC                01158 _MIOS_BANKSTICK_CtrlSet
                      01159         global  _MIOS_BANKSTICK_CtrlSet
                      01160 
                      01161 ;; --------------------------------------------------------------------------
                      01162 .MIOS_BANKSTICK_CtrlGet code MIOS_BANKSTICK_CtrlGet
002DE0                01163 _MIOS_BANKSTICK_CtrlGet
                      01164         global  _MIOS_BANKSTICK_CtrlGet
                      01165 
                      01166 ;; --------------------------------------------------------------------------
                      01167 .MIOS_BANKSTICK_WritePage code
000000                01168 _MIOS_BANKSTICK_WritePage
                      01169         global  _MIOS_BANKSTICK_WritePage
                      01170 
000000 6E03           01171         movwf   MIOS_PARAMETER1
000002 CFE9 FFD9      01172         movff   FSR0L, FSR2L
000006 CFDC F004      01173         movff   PREINC2, MIOS_PARAMETER2
00000A CFDC FFE1      01174         movff   PREINC2, FSR1L
00000E CFDC FFE2      01175         movff   PREINC2, FSR1H
                      01176 
                      01177 #if PARAMETER_PASSING_TEST
                      01178         movlw   0x56
                      01179         cpfseq  MIOS_PARAMETER1, ACCESS
gpasm-0.14.3 #861 (Oct 28 2012) mios_wrapper\   11-16-2013  11:38:41        PAGE 50


LOC  OBJECT CODE     LINE SOURCE TEXT
  VALUE

                      01180         return
                      01181 
                      01182         movlw   0x78
                      01183         cpfseq  MIOS_PARAMETER2, ACCESS
                      01184         return
                      01185 
                      01186         movlw   0x12
                      01187         cpfseq  FSR1L, ACCESS
                      01188         return
                      01189 
                      01190         movlw   0x03
                      01191         cpfseq  FSR1H, ACCESS
                      01192         return
                      01193 
                      01194         movlw   0x1a
                      01195         movwf   MIOS_PARAMETER1
                      01196         return
                      01197 #endif
                      01198 
000012 EFF2 F016      01199         goto    MIOS_BANKSTICK_WritePage
                      01200 
                      01201 ;; --------------------------------------------------------------------------
                      01202 .MIOS_BANKSTICK_ReadPage code
000000                01203 _MIOS_BANKSTICK_ReadPage
                      01204         global  _MIOS_BANKSTICK_ReadPage
                      01205         
000000 6E03           01206         movwf   MIOS_PARAMETER1
000002 CFE9 FFD9      01207         movff   FSR0L, FSR2L
000006 CFDC F004      01208         movff   PREINC2, MIOS_PARAMETER2
00000A CFDC FFE1      01209         movff   PREINC2, FSR1L
00000E CFDC FFE2      01210         movff   PREINC2, FSR1H
                      01211 
                      01212 #if PARAMETER_PASSING_TEST
                      01213         movlw   0x56
                      01214         cpfseq  MIOS_PARAMETER1, ACCESS
                      01215         return
                      01216 
                      01217         movlw   0x78
                      01218         cpfseq  MIOS_PARAMETER2, ACCESS
                      01219         return
                      01220 
                      01221         movlw   0x12
                      01222         cpfseq  FSR1L, ACCESS
                      01223         return
                      01224 
                      01225         movlw   0x03
                      01226         cpfseq  FSR1H, ACCESS
                      01227         return
                      01228 
                      01229         movlw   0x1a
                      01230         movwf   MIOS_PARAMETER1
                      01231         return
                      01232 #endif
gpasm-0.14.3 #861 (Oct 28 2012) mios_wrapper\   11-16-2013  11:38:41        PAGE 51


LOC  OBJECT CODE     LINE SOURCE TEXT
  VALUE

                      01233 
000012 EF18 F017      01234         goto    MIOS_BANKSTICK_ReadPage
                      01235 
                      01236 ;; --------------------------------------------------------------------------
                      01237 .MIOS_TIMER_Init code
000000                01238 _MIOS_TIMER_Init
                      01239         global  _MIOS_TIMER_Init
                      01240 
000000 CFE9 FFD9      01241         movff   FSR0L, FSR2L
000004 CFDC F003      01242         movff   PREINC2, MIOS_PARAMETER1
000008 CFDC F004      01243         movff   PREINC2, MIOS_PARAMETER2
                      01244 
                      01245 #if PARAMETER_PASSING_TEST
                      01246         movwf   TMP1
                      01247         movlw   0x56
                      01248         cpfseq  TMP1, ACCESS
                      01249         return
                      01250 
                      01251         movlw   0x12
                      01252         cpfseq  MIOS_PARAMETER1, ACCESS
                      01253         return
                      01254 
                      01255         movlw   0x34
                      01256         cpfseq  MIOS_PARAMETER2, ACCESS
                      01257         return
                      01258 
                      01259         movlw   0x1a
                      01260         movwf   MIOS_PARAMETER1
                      01261         return
                      01262 #endif
                      01263 
00000C EFBC F016      01264         goto    MIOS_TIMER_Init
                      01265 
                      01266 ;; --------------------------------------------------------------------------
                      01267 .MIOS_TIMER_Start code MIOS_TIMER_Start
002D7C                01268 _MIOS_TIMER_Start
                      01269         global  _MIOS_TIMER_Start
                      01270 
                      01271 ;; --------------------------------------------------------------------------
                      01272 .MIOS_TIMER_Stop code MIOS_TIMER_Stop
002D80                01273 _MIOS_TIMER_Stop
                      01274         global  _MIOS_TIMER_Stop
                      01275 
                      01276 ;; --------------------------------------------------------------------------
                      01277 .MIOS_TIMER_ReInit code
000000                01278 _MIOS_TIMER_ReInit
                      01279         global  _MIOS_TIMER_ReInit
                      01280 
000000 CFE9 FFD9      01281         movff   FSR0L, FSR2L
000004 CFDC F003      01282         movff   PREINC2, MIOS_PARAMETER1
000008 CFDC F004      01283         movff   PREINC2, MIOS_PARAMETER2
                      01284 
                      01285 #if PARAMETER_PASSING_TEST
gpasm-0.14.3 #861 (Oct 28 2012) mios_wrapper\   11-16-2013  11:38:41        PAGE 52


LOC  OBJECT CODE     LINE SOURCE TEXT
  VALUE

                      01286         movwf   TMP1
                      01287         movlw   0x56
                      01288         cpfseq  TMP1, ACCESS
                      01289         return
                      01290 
                      01291         movlw   0x12
                      01292         cpfseq  MIOS_PARAMETER1, ACCESS
                      01293         return
                      01294 
                      01295         movlw   0x34
                      01296         cpfseq  MIOS_PARAMETER2, ACCESS
                      01297         return
                      01298 
                      01299         movlw   0x1a
                      01300         movwf   MIOS_PARAMETER1
                      01301         return
                      01302 #endif
                      01303 
00000C EF1E F017      01304         goto    MIOS_TIMER_ReInit
                      01305 
                      01306 ;; --------------------------------------------------------------------------
                      01307 .MIOS_HLP_GetBitANDMask code MIOS_HLP_GetBitANDMask
002D88                01308 _MIOS_HLP_GetBitANDMask
                      01309         global  _MIOS_HLP_GetBitANDMask
                      01310 
                      01311 ;; --------------------------------------------------------------------------
                      01312 .MIOS_HLP_GetBitORMask code MIOS_HLP_GetBitORMask
002D8C                01313 _MIOS_HLP_GetBitORMask
                      01314         global  _MIOS_HLP_GetBitORMask
                      01315 
                      01316 ;; --------------------------------------------------------------------------
                      01317 .MIOS_HLP_16bitAddSaturate code
000000                01318 _MIOS_HLP_16bitAddSaturate
                      01319         global  _MIOS_HLP_16bitAddSaturate
                      01320 
000000 CFE9 FFD9      01321         movff   FSR0L, FSR2L
000004 6E0A           01322         movwf   TMP5
                      01323 
000006 CFDC FFE1      01324         movff   PREINC2, FSR1L
00000A CFDC FFE2      01325         movff   PREINC2, FSR1H
00000E 52DC           01326         movf    PREINC2, F
000010 CFDC F003      01327         movff   PREINC2, MIOS_PARAMETER1
000014 CFDC F004      01328         movff   PREINC2, MIOS_PARAMETER2
                      01329 
000018 CFE6 F006      01330         movff   POSTINC1, TMP1  ; due to requirement that FSR1 is aligned to 16bit address
00001C CFE6 F007      01331         movff   POSTINC1, TMP2
000020 EE10 F006      01332         lfsr    FSR1, TMP1
                      01333 
000024 500A           01334         movf    TMP5, W
000026 ECDC F016      01335         call    MIOS_HLP_16bitAddSaturate
00002A CFE9 FFD9      01336         movff   FSR0L, FSR2L
00002E CFDC FFE1      01337         movff   PREINC2, FSR1L
000032 CFDC FFE2      01338         movff   PREINC2, FSR1H
gpasm-0.14.3 #861 (Oct 28 2012) mios_wrapper\   11-16-2013  11:38:41        PAGE 53


LOC  OBJECT CODE     LINE SOURCE TEXT
  VALUE

000036 C006 FFE6      01339         movff   TMP1, POSTINC1
00003A C007 FFE6      01340         movff   TMP2, POSTINC1
00003E 0012           01341         return
                      01342 
                      01343 ;; --------------------------------------------------------------------------
                      01344 .MIOS_HLP_Dec2BCD code
000000                01345 _MIOS_HLP_Dec2BCD
                      01346         global  _MIOS_HLP_Dec2BCD
                      01347 
000000 CFE9 FFD9      01348         movff   FSR0L, FSR2L
000004 CFDC F003      01349         movff   PREINC2, MIOS_PARAMETER1
000008 EFF4 F016      01350         goto    MIOS_HLP_Dec2BCD
                      01351 
                      01352 ;; --------------------------------------------------------------------------
                      01353 .MIOS_Delay code MIOS_Delay
002D9C                01354 _MIOS_Delay
                      01355         global  _MIOS_Delay
                      01356 
                      01357 ;; --------------------------------------------------------------------------
                      01358 .MIOS_GPCounterGet code MIOS_GPCounterGet
002DA0                01359 _MIOS_GPCounterGet
                      01360         global  _MIOS_GPCounterGet
                      01361 
                      01362 ;; --------------------------------------------------------------------------
                      01363 .MIOS_Reset code MIOS_Reset
002DA4                01364 _MIOS_Reset
                      01365         global  _MIOS_Reset
                      01366 
                      01367 ;; --------------------------------------------------------------------------
                      01368 .MIOS_SystemResume code MIOS_SystemResume
002DA8                01369 _MIOS_SystemResume
                      01370         global  _MIOS_SystemResume
                      01371 
                      01372 ;; --------------------------------------------------------------------------
                      01373 .MIOS_SystemSuspend code MIOS_SystemSuspend
002DAC                01374 _MIOS_SystemSuspend
                      01375         global  _MIOS_SystemSuspend
                      01376 
                      01377 ;; --------------------------------------------------------------------------
                      01378 .MIOS_UserResume code MIOS_UserResume
002DB0                01379 _MIOS_UserResume
                      01380         global  _MIOS_UserResume
                      01381 
                      01382 ;; --------------------------------------------------------------------------
                      01383 .MIOS_UserSuspend code MIOS_UserSuspend
002DB4                01384 _MIOS_UserSuspend
                      01385         global  _MIOS_UserSuspend
                      01386 
                      01387 ;; --------------------------------------------------------------------------
                      01388 .MIOS_DIN_PinAutoRepeatEnable code MIOS_DIN_PinAutoRepeatEnable
002DBC                01389 _MIOS_DIN_PinAutoRepeatEnable
                      01390         global  _MIOS_DIN_PinAutoRepeatEnable
                      01391 
gpasm-0.14.3 #861 (Oct 28 2012) mios_wrapper\   11-16-2013  11:38:41        PAGE 54


LOC  OBJECT CODE     LINE SOURCE TEXT
  VALUE

                      01392 ;; --------------------------------------------------------------------------
                      01393 .MIOS_DIN_PinAutoRepeatDisable code MIOS_DIN_PinAutoRepeatDisable
002DC0                01394 _MIOS_DIN_PinAutoRepeatDisable
                      01395         global  _MIOS_DIN_PinAutoRepeatDisable
                      01396 
                      01397 ;; --------------------------------------------------------------------------
                      01398 .MIOS_DIN_PinAutoRepeatGet code MIOS_DIN_PinAutoRepeatGet
002DC4                01399 _MIOS_DIN_PinAutoRepeatGet
                      01400         global  _MIOS_DIN_PinAutoRepeatGet
                      01401 
                      01402 ;; --------------------------------------------------------------------------
                      01403 .MIOS_AIN_DynamicPrioSet code MIOS_AIN_DynamicPrioSet
002DD0                01404 _MIOS_AIN_DynamicPrioSet
                      01405         global  _MIOS_AIN_DynamicPrioSet
                      01406 
                      01407 ;; --------------------------------------------------------------------------
                      01408 .MIOS_AIN_DynamicPrioGet code MIOS_AIN_DynamicPrioGet
002DD4                01409 _MIOS_AIN_DynamicPrioGet
                      01410         global  _MIOS_AIN_DynamicPrioGet
                      01411 
                      01412 ;; --------------------------------------------------------------------------
                      01413 .MIOS_AIN_LastPinsGet code MIOS_AIN_LastPinsGet
002DD8                01414 _MIOS_AIN_LastPinsGet
                      01415         global  _MIOS_AIN_LastPinsGet
                      01416 
                      01417 ;; --------------------------------------------------------------------------
                      01418 .MIOS_IIC_Start code MIOS_IIC_Start
002E04                01419 _MIOS_IIC_Start
                      01420         global  _MIOS_IIC_Start
                      01421 
                      01422 ;; --------------------------------------------------------------------------
                      01423 .MIOS_IIC_Stop code MIOS_IIC_Stop
002E08                01424 _MIOS_IIC_Stop
                      01425         global  _MIOS_IIC_Stop
                      01426 
                      01427 ;; --------------------------------------------------------------------------
                      01428 .MIOS_IIC_ByteSend code MIOS_IIC_ByteSend
002E0C                01429 _MIOS_IIC_ByteSend
                      01430         global  _MIOS_IIC_ByteSend
                      01431 
                      01432 ;; --------------------------------------------------------------------------
                      01433 .MIOS_IIC_ByteReceive code MIOS_IIC_ByteReceive
002E10                01434 _MIOS_IIC_ByteReceive
                      01435         global  _MIOS_IIC_ByteReceive
                      01436 
                      01437 ;; --------------------------------------------------------------------------
                      01438 .MIOS_IIC_AckSend code MIOS_IIC_AckSend
002E14                01439 _MIOS_IIC_AckSend
                      01440         global  _MIOS_IIC_AckSend
                      01441 
                      01442 ;; --------------------------------------------------------------------------
                      01443 .MIOS_IIC_NakSend code MIOS_IIC_NakSend
002E18                01444 _MIOS_IIC_NakSend
gpasm-0.14.3 #861 (Oct 28 2012) mios_wrapper\   11-16-2013  11:38:41        PAGE 55


LOC  OBJECT CODE     LINE SOURCE TEXT
  VALUE

                      01445         global  _MIOS_IIC_NakSend
                      01446 
                      01447 ;; --------------------------------------------------------------------------
                      01448 .MIOS_IIC_CtrlSet code MIOS_IIC_CtrlSet
002E1C                01449 _MIOS_IIC_CtrlSet
                      01450         global  _MIOS_IIC_CtrlSet
                      01451 
                      01452 ;; --------------------------------------------------------------------------
                      01453 .MIOS_IIC_CtrlGet code MIOS_IIC_CtrlGet
002E20                01454 _MIOS_IIC_CtrlGet
                      01455         global  _MIOS_IIC_CtrlGet
                      01456 
                      01457 
                      01458 ;; --------------------------------------------------------------------------
                      01459 ;; ==========================================================================
                      01460 ;;  Special functions supported by the wrapper
                      01461 ;; ==========================================================================
                      01462 ;; --------------------------------------------------------------------------
                      01463 
                      01464 ;; --------------------------------------------------------------------------
                      01465 .MIOS_LCD_PrintCString code
000000                01466 _MIOS_LCD_PrintCString
                      01467         global  _MIOS_LCD_PrintCString
                      01468 
000000 6EF6           01469         movwf   TBLPTRL
000002 CFE9 FFD9      01470         movff   FSR0L, FSR2L
000006 CFDC FFF7      01471         movff   PREINC2, TBLPTRH
00000A CFDC FFF8      01472         movff   PREINC2, TBLPTRU
00000E                01473 _MIOS_LCD_PrintCStringLoop
00000E 0009           01474         tblrd*+
000010 50F5           01475         movf    TABLAT, W
000012 E0??           01476         bz      _MIOS_LCD_PrintCString_End
000014 EC94 F016      01477         call    MIOS_LCD_PrintChar
000018 D???           01478         bra     _MIOS_LCD_PrintCStringLoop
00001A                01479 _MIOS_LCD_PrintCString_End
00001A 0012           01480         return
                      01481 
                      01482         END
gpasm-0.14.3 #861 (Oct 28 2012) mios_wrapper\   11-16-2013  11:38:41        PAGE 56


SYMBOL TABLE
  LABEL                             VALUE

A                                 00000000
ACCESS                            00000000
ACKDT                             00000005
ACKEN                             00000004
ACKSTAT                           00000006
ADCON0                            00000FC2
ADCON1                            00000FC1
ADCS0                             00000006
ADCS1                             00000007
ADCS2                             00000006
ADDEN                             00000003
ADFM                              00000007
ADIE                              00000006
ADIF                              00000006
ADIP                              00000006
ADON                              00000000
ADRESH                            00000FC4
ADRESL                            00000FC3
AN0                               00000000
AN1                               00000001
AN2                               00000002
AN3                               00000003
AN4                               00000005
AN5                               00000000
AN6                               00000001
AN7                               00000002
BANKED                            00000001
BCLIE                             00000003
BCLIF                             00000003
BCLIP                             00000003
BF                                00000000
BOR                               00000000
BRGH                              00000002
BSR                               00000FE0
C                                 00000000
CCP1                              00000002
CCP1CON                           00000FBD
CCP1IE                            00000002
CCP1IF                            00000002
CCP1IP                            00000002
CCP1M0                            00000000
CCP1M1                            00000001
CCP1M2                            00000002
CCP1M3                            00000003
CCP1X                             00000005
CCP1Y                             00000004
CCP2                              00000001
CCP2A                             00000003
CCP2CON                           00000FBA
CCP2IE                            00000000
CCP2IF                            00000000
CCP2IP                            00000000
CCP2M0                            00000000
gpasm-0.14.3 #861 (Oct 28 2012) mios_wrapper\   11-16-2013  11:38:41        PAGE 57


SYMBOL TABLE
  LABEL                             VALUE 

CCP2M1                            00000001
CCP2M2                            00000002
CCP2M3                            00000003
CCP2X                             00000005
CCP2Y                             00000004
CCPR1H                            00000FBF
CCPR1L                            00000FBE
CCPR2H                            00000FBC
CCPR2L                            00000FBB
CFGS                              00000006
CHS0                              00000003
CHS1                              00000004
CHS2                              00000005
CK                                00000006
CKE                               00000006
CKP                               00000004
CLKO                              00000006
CREN                              00000004
CS                                00000002
CSRC                              00000007
D                                 00000005
DATA_ADDRESS                      00000005
DC                                00000001
DC1B0                             00000004
DC1B1                             00000005
DC2B0                             00000004
DC2B1                             00000005
DDRA                              TRISA
DDRB                              TRISB
DDRC                              TRISC
DDRD                              TRISD
DDRE                              TRISE
DONE                              00000002
D_A                               00000005
EEADR                             00000FA9
EECON1                            00000FA6
EECON2                            00000FA7
EEDATA                            00000FA8
EEIE                              00000004
EEIF                              00000004
EEIP                              00000004
EEPGD                             00000007
ENC_ENTRY                         
ENC_EOT                           
FAST                              00000001
FERR                              00000002
FREE                              00000004
FSR0                              00000000
FSR0H                             00000FEA
FSR0L                             00000FE9
FSR1                              00000001
FSR1H                             00000FE2
FSR1L                             00000FE1
gpasm-0.14.3 #861 (Oct 28 2012) mios_wrapper\   11-16-2013  11:38:41        PAGE 58


SYMBOL TABLE
  LABEL                             VALUE 

FSR2                              00000002
FSR2H                             00000FDA
FSR2L                             00000FD9
GCEN                              00000007
GIE                               00000007
GIEH                              00000007
GIEL                              00000006
GO                                00000002
GO_DONE                           00000002
I2C_DAT                           00000005
I2C_READ                          00000002
I2C_START                         00000003
I2C_STOP                          00000004
IBF                               00000007
IBOV                              00000005
INDF0                             00000FEF
INDF1                             00000FE7
INDF2                             00000FDF
INT0                              00000000
INT0E                             00000004
INT0F                             00000001
INT0IE                            00000004
INT0IF                            00000001
INT1                              00000001
INT1IE                            00000003
INT1IF                            00000000
INT1IP                            00000006
INT2                              00000002
INT2IE                            00000004
INT2IF                            00000001
INT2IP                            00000007
INTCON                            00000FF2
INTCON1                           00000FF2
INTCON2                           00000FF1
INTCON3                           00000FF0
INTEDG0                           00000006
INTEDG1                           00000005
INTEDG2                           00000004
IPEN                              00000007
IPR1                              00000F9F
IPR2                              00000FA2
IRQ_TMP1                          0000000B
IRQ_TMP2                          0000000C
IRQ_TMP3                          0000000D
IRQ_TMP4                          0000000E
IRQ_TMP5                          0000000F
IRVST                             00000005
LATA                              00000F89
LATB                              00000F8A
LATC                              00000F8B
LATD                              00000F8C
LATE                              00000F8D
LVDCON                            00000FD2
gpasm-0.14.3 #861 (Oct 28 2012) mios_wrapper\   11-16-2013  11:38:41        PAGE 59


SYMBOL TABLE
  LABEL                             VALUE 

LVDEN                             00000004
LVDIE                             00000002
LVDIF                             00000002
LVDIN                             00000005
LVDIP                             00000002
LVDL0                             00000000
LVDL1                             00000001
LVDL2                             00000002
LVDL3                             00000003
MIOS_AIN_DeadbandGet              00002C5C
MIOS_AIN_DeadbandSet              00002C60
MIOS_AIN_DynamicPrioGet           00002DD4
MIOS_AIN_DynamicPrioSet           00002DD0
MIOS_AIN_LastPinsGet              00002DD8
MIOS_AIN_Muxed                    00002C64
MIOS_AIN_NumberGet                00002C68
MIOS_AIN_NumberSet                00002C6C
MIOS_AIN_Pin7bitGet               00002C70
MIOS_AIN_PinGet                   00002C74
MIOS_AIN_PinLSBGet                00002C78
MIOS_AIN_PinMSBGet                00002C7C
MIOS_AIN_UnMuxed                  00002C80
MIOS_BANKSTICK_CtrlGet            00002DE0
MIOS_BANKSTICK_CtrlSet            00002DDC
MIOS_BANKSTICK_Read               00002D70
MIOS_BANKSTICK_ReadPage           00002E30
MIOS_BANKSTICK_Write              00002D74
MIOS_BANKSTICK_WritePage          00002DE4
MIOS_BOX_CFG0                     00000000
MIOS_BOX_CFG0_20MHz               00000007
MIOS_BOX_CFG0_LCD_TYPE0           00000000
MIOS_BOX_CFG0_LCD_TYPE1           00000001
MIOS_BOX_CFG0_LCD_TYPE2           00000002
MIOS_BOX_CFG0_MBLINK              00000005
MIOS_BOX_CFG0_MERGER              00000004
MIOS_BOX_CFG0_TO_HOST             00000006
MIOS_BOX_CFG0_USE_GLCD            00000003
MIOS_BOX_CFG1                     00000001
MIOS_BOX_CFG1_BS_A0               00000000
MIOS_BOX_CFG1_BS_A1               00000001
MIOS_BOX_CFG1_BS_A2               00000002
MIOS_BOX_CFG1_BS_DIS_VERIFY       00000003
MIOS_BOX_CFG1_IIC_STRETCH_CLK     00000004
MIOS_BOX_STAT                     00000002
MIOS_BOX_STAT_AUTOREPEAT          00000004
MIOS_BOX_STAT_BS_AVAILABLE        00000000
MIOS_BOX_STAT_FERR                00000006
MIOS_BOX_STAT_MBLINK_TUNNEL_PASS  00000001
MIOS_BOX_STAT_MLCD_TRANSFER       00000005
MIOS_BOX_STAT_SUSPEND_ALL         00000002
MIOS_BOX_STAT_SUSPEND_USER        00000003
MIOS_CLCD_SpecialCharInit         00002DC8
MIOS_CLCD_SpecialCharsInit        00002DCC
gpasm-0.14.3 #861 (Oct 28 2012) mios_wrapper\   11-16-2013  11:38:41        PAGE 60


SYMBOL TABLE
  LABEL                             VALUE 

MIOS_DIN_PinAutoRepeatDisable     00002DC0
MIOS_DIN_PinAutoRepeatEnable      00002DBC
MIOS_DIN_PinAutoRepeatGet         00002DC4
MIOS_DIN_PinGet                   00002CB4
MIOS_DIN_SRGet                    00002CB8
MIOS_DOUT_PinGet                  00002CBC
MIOS_DOUT_PinSet                  00002CC0
MIOS_DOUT_PinSet0                 00002CC4
MIOS_DOUT_PinSet1                 00002CC8
MIOS_DOUT_SRGet                   00002CCC
MIOS_DOUT_SRSet                   00002CD0
MIOS_Delay                        00002D9C
MIOS_EEPROM_Read                  00002D60
MIOS_EEPROM_ReadPage              00002E34
MIOS_EEPROM_Write                 00002D64
MIOS_EEPROM_WritePage             00002E38
MIOS_ENC_Abs7bitAdd               00002CD4
MIOS_ENC_Abs7bitGet               00002CD8
MIOS_ENC_Abs7bitSet               00002CDC
MIOS_ENC_MODE_DETENTED            00000080
MIOS_ENC_MODE_DETENTED2           00000081
MIOS_ENC_MODE_NON_DETENTED        00000000
MIOS_ENC_NumberGet                00002CE0
MIOS_ENC_PIN_TABLE                00003280
MIOS_ENC_SPEED_FAST               00000002
MIOS_ENC_SPEED_NORMAL             00000001
MIOS_ENC_SPEED_SLOW               00000000
MIOS_ENC_SpeedGet                 00002CE4
MIOS_ENC_SpeedSet                 00002CE8
MIOS_FLASH_Read                   00002D68
MIOS_FLASH_Write                  00002D6C
MIOS_GLCD_BUFFER                  00000570
MIOS_GLCD_FONT                    00007CFC
MIOS_GLCD_FONT_HEIGHT             0000057E
MIOS_GLCD_FONT_OFFSET             00000580
MIOS_GLCD_FONT_PTRH               00000582
MIOS_GLCD_FONT_PTRL               00000581
MIOS_GLCD_FONT_WIDTH              0000057D
MIOS_GLCD_FONT_X0                 0000057F
MIOS_GLCD_FontInit                00002D54
MIOS_GLCD_GCURSOR_X               0000057B
MIOS_GLCD_GCURSOR_Y               0000057C
MIOS_GLCD_GCursorGet              00002D58
MIOS_GLCD_GCursorSet              00002D5C
MIOS_GLCD_TMP1                    00000585
MIOS_GLCD_TMP2                    00000586
MIOS_GLCD_TMP3                    00000587
MIOS_GLCD_TMP4                    00000588
MIOS_GPCounterGet                 00002DA0
MIOS_HLP_16bitAddSaturate         00002DB8
MIOS_HLP_AddressFromTable         00002D84
MIOS_HLP_Dec2BCD                  00002DE8
MIOS_HLP_GetBitANDMask            00002D88
gpasm-0.14.3 #861 (Oct 28 2012) mios_wrapper\   11-16-2013  11:38:41        PAGE 61


SYMBOL TABLE
  LABEL                             VALUE 

MIOS_HLP_GetBitORMask             00002D8C
MIOS_HLP_GetIndex_2bytes          00002D90
MIOS_HLP_GetIndex_4bytes          00002D94
MIOS_HLP_IndirectJump             00002D98
MIOS_IIC_AckSend                  00002E14
MIOS_IIC_ByteReceive              00002E10
MIOS_IIC_ByteSend                 00002E0C
MIOS_IIC_CtrlGet                  00002E20
MIOS_IIC_CtrlSet                  00002E1C
MIOS_IIC_NakSend                  00002E18
MIOS_IIC_Start                    00002E04
MIOS_IIC_Stop                     00002E08
MIOS_LCD_CURSOR_POS               0000057A
MIOS_LCD_CURSOR_POS_REAL          0000058D
MIOS_LCD_Clear                    00002D04
MIOS_LCD_Cmd                      00002D08
MIOS_LCD_CursorGet                00002D0C
MIOS_LCD_CursorSet                00002D10
MIOS_LCD_Data                     00002D14
MIOS_LCD_Init                     00002D18
MIOS_LCD_MessageStart             00002DF4
MIOS_LCD_MessageStop              00002DF8
MIOS_LCD_OPTION1                  00000578
MIOS_LCD_OPTION2                  00000579
MIOS_LCD_PrintBCD1                00002D1C
MIOS_LCD_PrintBCD2                00002D20
MIOS_LCD_PrintBCD3                00002D24
MIOS_LCD_PrintBCD4                00002DEC
MIOS_LCD_PrintBCD5                00002DF0
MIOS_LCD_PrintChar                00002D28
MIOS_LCD_PrintHex1                00002D2C
MIOS_LCD_PrintHex2                00002D30
MIOS_LCD_PrintMessage             00002D34
MIOS_LCD_PrintPreconfString       00002D38
MIOS_LCD_PrintString              00002D3C
MIOS_LCD_TIMEOUT0                 00000583
MIOS_LCD_TIMEOUT1                 00000584
MIOS_LCD_TYPE_CLCD                00000000
MIOS_LCD_TYPE_GLCD0               00000001
MIOS_LCD_TYPE_GLCD1               00000002
MIOS_LCD_TYPE_GLCD2               00000003
MIOS_LCD_TYPE_GLCD3               00000004
MIOS_LCD_TYPE_GLCD4               00000005
MIOS_LCD_TYPE_GLCD_CUSTOM         00000007
MIOS_LCD_TYPE_MLCD                00000006
MIOS_LCD_TypeAutoSet              00002D40
MIOS_LCD_TypeGet                  00002D44
MIOS_LCD_TypeSet                  00002D48
MIOS_LCD_Y0_OFFSET                00000589
MIOS_LCD_Y1_OFFSET                0000058A
MIOS_LCD_Y2_OFFSET                0000058B
MIOS_LCD_Y3_OFFSET                0000058C
MIOS_LCD_YAddressGet              00002D4C
gpasm-0.14.3 #861 (Oct 28 2012) mios_wrapper\   11-16-2013  11:38:41        PAGE 62


SYMBOL TABLE
  LABEL                             VALUE 

MIOS_LCD_YAddressSet              00002D50
MIOS_MF_DeadbandGet               00002C94
MIOS_MF_DeadbandSet               00002C98
MIOS_MF_Disable                   00002C9C
MIOS_MF_Enable                    00002CA0
MIOS_MF_FaderMove                 00002CA4
MIOS_MF_PWM_DutyCycleDownGet      00002C84
MIOS_MF_PWM_DutyCycleDownSet      00002C88
MIOS_MF_PWM_DutyCycleUpGet        00002C8C
MIOS_MF_PWM_DutyCycleUpSet        00002C90
MIOS_MF_PWM_PeriodGet             00002DFC
MIOS_MF_PWM_PeriodSet             00002E00
MIOS_MF_SuspendDisable            00002CA8
MIOS_MF_SuspendEnable             00002CAC
MIOS_MF_SuspendGet                00002CB0
MIOS_MF_TouchDetectionReset       00002E2C
MIOS_MIDI_BeginStream             00002C00
MIOS_MIDI_DeviceIDAutoSet         00002C04
MIOS_MIDI_DeviceIDGet             00002C08
MIOS_MIDI_DeviceIDSet             00002C0C
MIOS_MIDI_EndStream               00002C10
MIOS_MIDI_INTERFACE_COMMON        00000000
MIOS_MIDI_INTERFACE_TO_HOST       00000001
MIOS_MIDI_Init                    00002C14
MIOS_MIDI_InterfaceAutoSet        00002C18
MIOS_MIDI_InterfaceGet            00002C1C
MIOS_MIDI_InterfaceSet            00002C20
MIOS_MIDI_MERGER_DISABLED         00000000
MIOS_MIDI_MERGER_ENABLED          00000001
MIOS_MIDI_MERGER_MBLINK_EP        00000002
MIOS_MIDI_MERGER_MBLINK_FP        00000003
MIOS_MIDI_MergerGet               00002C24
MIOS_MIDI_MergerSet               00002C28
MIOS_MIDI_RxBufferFree            00002C2C
MIOS_MIDI_RxBufferGet             00002C30
MIOS_MIDI_RxBufferPut             00002C34
MIOS_MIDI_RxBufferUsed            00002C38
MIOS_MIDI_TxBufferFlush           00002C3C
MIOS_MIDI_TxBufferFree            00002C40
MIOS_MIDI_TxBufferGet             00002C44
MIOS_MIDI_TxBufferPut             00002C48
MIOS_MIDI_TxBufferUsed            00002C4C
MIOS_MPROC_EVENT_TABLE            00003080
MIOS_MPROC_MergerDisable          00002C50
MIOS_MPROC_MergerEnable           00002C54
MIOS_MPROC_MergerGet              00002C58
MIOS_PARAMETER1                   00000003
MIOS_PARAMETER2                   00000004
MIOS_PARAMETER3                   00000005
MIOS_RESERVED_144                 00002E40
MIOS_RESERVED_145                 00002E44
MIOS_RESERVED_146                 00002E48
MIOS_RESERVED_147                 00002E4C
gpasm-0.14.3 #861 (Oct 28 2012) mios_wrapper\   11-16-2013  11:38:41        PAGE 63


SYMBOL TABLE
  LABEL                             VALUE 

MIOS_RESERVED_148                 00002E50
MIOS_RESERVED_149                 00002E54
MIOS_RESERVED_150                 00002E58
MIOS_RESERVED_151                 00002E5C
MIOS_RESERVED_152                 00002E60
MIOS_RESERVED_153                 00002E64
MIOS_RESERVED_154                 00002E68
MIOS_RESERVED_155                 00002E6C
MIOS_RESERVED_156                 00002E70
MIOS_RESERVED_157                 00002E74
MIOS_RESERVED_158                 00002E78
MIOS_RESERVED_159                 00002E7C
MIOS_RESERVED_160                 00002E80
MIOS_RESERVED_161                 00002E84
MIOS_RESERVED_162                 00002E88
MIOS_RESERVED_163                 00002E8C
MIOS_RESERVED_164                 00002E90
MIOS_RESERVED_165                 00002E94
MIOS_RESERVED_166                 00002E98
MIOS_RESERVED_167                 00002E9C
MIOS_RESERVED_168                 00002EA0
MIOS_RESERVED_169                 00002EA4
MIOS_RESERVED_170                 00002EA8
MIOS_RESERVED_171                 00002EAC
MIOS_RESERVED_172                 00002EB0
MIOS_RESERVED_173                 00002EB4
MIOS_RESERVED_174                 00002EB8
MIOS_RESERVED_175                 00002EBC
MIOS_RESERVED_176                 00002EC0
MIOS_RESERVED_177                 00002EC4
MIOS_RESERVED_178                 00002EC8
MIOS_RESERVED_179                 00002ECC
MIOS_RESERVED_180                 00002ED0
MIOS_RESERVED_181                 00002ED4
MIOS_RESERVED_182                 00002ED8
MIOS_RESERVED_183                 00002EDC
MIOS_RESERVED_184                 00002EE0
MIOS_RESERVED_185                 00002EE4
MIOS_RESERVED_186                 00002EE8
MIOS_RESERVED_187                 00002EEC
MIOS_RESERVED_188                 00002EF0
MIOS_RESERVED_189                 00002EF4
MIOS_RESERVED_190                 00002EF8
MIOS_RESERVED_191                 00002EFC
MIOS_RESERVED_192                 00002F00
MIOS_RESERVED_193                 00002F04
MIOS_RESERVED_194                 00002F08
MIOS_RESERVED_195                 00002F0C
MIOS_RESERVED_196                 00002F10
MIOS_RESERVED_197                 00002F14
MIOS_RESERVED_198                 00002F18
MIOS_RESERVED_199                 00002F1C
MIOS_RESERVED_200                 00002F20
gpasm-0.14.3 #861 (Oct 28 2012) mios_wrapper\   11-16-2013  11:38:41        PAGE 64


SYMBOL TABLE
  LABEL                             VALUE 

MIOS_RESERVED_201                 00002F24
MIOS_RESERVED_202                 00002F28
MIOS_RESERVED_203                 00002F2C
MIOS_RESERVED_204                 00002F30
MIOS_RESERVED_205                 00002F34
MIOS_RESERVED_206                 00002F38
MIOS_RESERVED_207                 00002F3C
MIOS_RESERVED_208                 00002F40
MIOS_RESERVED_209                 00002F44
MIOS_RESERVED_210                 00002F48
MIOS_RESERVED_211                 00002F4C
MIOS_RESERVED_212                 00002F50
MIOS_RESERVED_213                 00002F54
MIOS_RESERVED_214                 00002F58
MIOS_RESERVED_215                 00002F5C
MIOS_RESERVED_216                 00002F60
MIOS_RESERVED_217                 00002F64
MIOS_RESERVED_218                 00002F68
MIOS_RESERVED_219                 00002F6C
MIOS_RESERVED_220                 00002F70
MIOS_RESERVED_221                 00002F74
MIOS_RESERVED_222                 00002F78
MIOS_RESERVED_223                 00002F7C
MIOS_RESERVED_224                 00002F80
MIOS_RESERVED_225                 00002F84
MIOS_RESERVED_226                 00002F88
MIOS_RESERVED_227                 00002F8C
MIOS_RESERVED_228                 00002F90
MIOS_RESERVED_229                 00002F94
MIOS_RESERVED_230                 00002F98
MIOS_RESERVED_231                 00002F9C
MIOS_RESERVED_232                 00002FA0
MIOS_RESERVED_233                 00002FA4
MIOS_RESERVED_234                 00002FA8
MIOS_RESERVED_235                 00002FAC
MIOS_RESERVED_236                 00002FB0
MIOS_RESERVED_237                 00002FB4
MIOS_RESERVED_238                 00002FB8
MIOS_RESERVED_239                 00002FBC
MIOS_RESERVED_240                 00002FC0
MIOS_RESERVED_241                 00002FC4
MIOS_RESERVED_242                 00002FC8
MIOS_RESERVED_243                 00002FCC
MIOS_RESERVED_244                 00002FD0
MIOS_RESERVED_245                 00002FD4
MIOS_RESERVED_246                 00002FD8
MIOS_RESERVED_247                 00002FDC
MIOS_RESERVED_248                 00002FE0
MIOS_RESERVED_249                 00002FE4
MIOS_RESERVED_250                 00002FE8
MIOS_RESERVED_251                 00002FEC
MIOS_RESERVED_252                 00002FF0
MIOS_RESERVED_253                 00002FF4
gpasm-0.14.3 #861 (Oct 28 2012) mios_wrapper\   11-16-2013  11:38:41        PAGE 65


SYMBOL TABLE
  LABEL                             VALUE 

MIOS_RESERVED_254                 00002FF8
MIOS_RESERVED_255                 00002FFC
MIOS_Reset                        00002DA4
MIOS_SRIO_DebounceGet             00002E28
MIOS_SRIO_DebounceSet             00002E24
MIOS_SRIO_NumberGet               00002CEC
MIOS_SRIO_NumberSet               00002CF0
MIOS_SRIO_TS_SensitivityGet       00002CF4
MIOS_SRIO_TS_SensitivitySet       00002CF8
MIOS_SRIO_UpdateFrqGet            00002CFC
MIOS_SRIO_UpdateFrqSet            00002D00
MIOS_SystemResume                 00002DA8
MIOS_SystemSuspend                00002DAC
MIOS_TIMER_Init                   00002D78
MIOS_TIMER_ReInit                 00002E3C
MIOS_TIMER_Start                  00002D7C
MIOS_TIMER_Stop                   00002D80
MIOS_UserResume                   00002DB0
MIOS_UserSuspend                  00002DB4
MT_ENTRY                          
MT_EOT                            
N                                 00000004
NOT_A                             00000005
NOT_ADDRESS                       00000005
NOT_BOR                           00000000
NOT_DONE                          00000002
NOT_PD                            00000002
NOT_POR                           00000001
NOT_RBPU                          00000007
NOT_RC8                           00000006
NOT_RI                            00000004
NOT_T1SYNC                        00000002
NOT_T3SYNC                        00000002
NOT_TO                            00000003
NOT_TX8                           00000006
NOT_W                             00000002
NOT_WRITE                         00000002
OBF                               00000006
OERR                              00000001
OSC2                              00000006
OSCCON                            00000FD3
OV                                00000003
P                                 00000004
PARAMETER_PASSING_TEST            0
PCFG0                             00000000
PCFG1                             00000001
PCFG2                             00000002
PCFG3                             00000003
PCL                               00000FF9
PCLATH                            00000FFA
PCLATU                            00000FFB
PD                                00000002
PEIE                              00000006
gpasm-0.14.3 #861 (Oct 28 2012) mios_wrapper\   11-16-2013  11:38:41        PAGE 66


SYMBOL TABLE
  LABEL                             VALUE 

PEN                               00000002
PIC_DERIVATIVE_TYPE               0
PIE1                              00000F9D
PIE2                              00000FA0
PIR1                              00000F9E
PIR2                              00000FA1
PLUSW0                            00000FEB
PLUSW1                            00000FE3
PLUSW2                            00000FDB
POR                               00000001
PORTA                             00000F80
PORTB                             00000F81
PORTC                             00000F82
PORTD                             00000F83
PORTE                             00000F84
POSTDEC0                          00000FED
POSTDEC1                          00000FE5
POSTDEC2                          00000FDD
POSTINC0                          00000FEE
POSTINC1                          00000FE6
POSTINC2                          00000FDE
PR2                               00000FCB
PREINC0                           00000FEC
PREINC1                           00000FE4
PREINC2                           00000FDC
PRODH                             00000FF4
PRODL                             00000FF3
PSA                               00000003
PSP0                              00000000
PSP1                              00000001
PSP2                              00000002
PSP3                              00000003
PSP4                              00000004
PSP5                              00000005
PSP6                              00000006
PSP7                              00000007
PSPIE                             00000007
PSPIF                             00000007
PSPIP                             00000007
PSPMODE                           00000004
R                                 00000002
RA0                               00000000
RA1                               00000001
RA2                               00000002
RA3                               00000003
RA4                               00000004
RA5                               00000005
RA6                               00000006
RB0                               00000000
RB1                               00000001
RB2                               00000002
RB3                               00000003
RB4                               00000004
gpasm-0.14.3 #861 (Oct 28 2012) mios_wrapper\   11-16-2013  11:38:41        PAGE 67


SYMBOL TABLE
  LABEL                             VALUE 

RB5                               00000005
RB6                               00000006
RB7                               00000007
RBIE                              00000003
RBIF                              00000000
RBIP                              00000000
RBPU                              00000007
RC0                               00000000
RC1                               00000001
RC2                               00000002
RC3                               00000003
RC4                               00000004
RC5                               00000005
RC6                               00000006
RC7                               00000007
RC8_9                             00000006
RC9                               00000006
RCD8                              00000000
RCEN                              00000003
RCIE                              00000005
RCIF                              00000005
RCIP                              00000005
RCON                              00000FD0
RCREG                             00000FAE
RCSTA                             00000FAB
RD                                00000000
RD0                               00000000
RD1                               00000001
RD16                              00000007
RD2                               00000002
RD3                               00000003
RD4                               00000004
RD5                               00000005
RD6                               00000006
RD7                               00000007
RE0                               00000000
RE1                               00000001
RE2                               00000002
READ_WRITE                        00000002
RI                                00000004
RSEN                              00000001
RX                                00000007
RX9                               00000006
RX9D                              00000000
R_W                               00000002
S                                 00000003
SCK                               00000003
SCL                               00000003
SCS                               00000000
SDA                               00000004
SDI                               00000004
SDO                               00000005
SEN                               00000000
gpasm-0.14.3 #861 (Oct 28 2012) mios_wrapper\   11-16-2013  11:38:41        PAGE 68


SYMBOL TABLE
  LABEL                             VALUE 

SMP                               00000007
SPBRG                             00000FAF
SPEN                              00000007
SREN                              00000005
SS                                00000005
SSPADD                            00000FC8
SSPBUF                            00000FC9
SSPCON1                           00000FC6
SSPCON2                           00000FC5
SSPEN                             00000005
SSPIE                             00000003
SSPIF                             00000003
SSPIP                             00000003
SSPM0                             00000000
SSPM1                             00000001
SSPM2                             00000002
SSPM3                             00000003
SSPOV                             00000006
SSPSTAT                           00000FC7
STATUS                            00000FD8
STKFUL                            00000007
STKPTR                            00000FFC
STKUNF                            00000006
SWDTE                             00000000
SWDTEN                            00000000
SYNC                              00000004
T08BIT                            00000006
T0CKI                             00000004
T0CON                             00000FD5
T0CS                              00000005
T0IE                              00000005
T0IF                              00000002
T0IP                              00000002
T0PS0                             00000000
T0PS1                             00000001
T0PS2                             00000002
T0SE                              00000004
T1CKI                             00000000
T1CKPS0                           00000004
T1CKPS1                           00000005
T1CON                             00000FCD
T1INSYNC                          00000002
T1OSCEN                           00000003
T1OSI                             00000001
T1OSO                             00000000
T1SYNC                            00000002
T2CKPS0                           00000000
T2CKPS1                           00000001
T2CON                             00000FCA
T3CCP1                            00000003
T3CCP2                            00000006
T3CKPS0                           00000004
T3CKPS1                           00000005
gpasm-0.14.3 #861 (Oct 28 2012) mios_wrapper\   11-16-2013  11:38:41        PAGE 69


SYMBOL TABLE
  LABEL                             VALUE 

T3CON                             00000FB1
T3INSYNC                          00000002
T3SYNC                            00000002
TABLAT                            00000FF5
TBLPTRH                           00000FF7
TBLPTRL                           00000FF6
TBLPTRU                           00000FF8
TMP1                              00000006
TMP2                              00000007
TMP3                              00000008
TMP4                              00000009
TMP5                              0000000A
TMR0H                             00000FD7
TMR0IE                            00000005
TMR0IF                            00000002
TMR0IP                            00000002
TMR0L                             00000FD6
TMR0ON                            00000007
TMR1CS                            00000001
TMR1H                             00000FCF
TMR1IE                            00000000
TMR1IF                            00000000
TMR1IP                            00000000
TMR1L                             00000FCE
TMR1ON                            00000000
TMR2                              00000FCC
TMR2IE                            00000001
TMR2IF                            00000001
TMR2IP                            00000001
TMR2ON                            00000002
TMR3CS                            00000001
TMR3H                             00000FB3
TMR3IE                            00000001
TMR3IF                            00000001
TMR3IP                            00000001
TMR3L                             00000FB2
TMR3ON                            00000000
TO                                00000003
TOSH                              00000FFE
TOSL                              00000FFD
TOSU                              00000FFF
TOUTPS0                           00000003
TOUTPS1                           00000004
TOUTPS2                           00000005
TOUTPS3                           00000006
TRISA                             00000F92
TRISB                             00000F93
TRISC                             00000F94
TRISD                             00000F95
TRISE                             00000F96
TRISE0                            00000000
TRISE1                            00000001
TRISE2                            00000002
gpasm-0.14.3 #861 (Oct 28 2012) mios_wrapper\   11-16-2013  11:38:41        PAGE 70


SYMBOL TABLE
  LABEL                             VALUE 

TRMT                              00000001
TX                                00000006
TX8_9                             00000006
TX9                               00000006
TX9D                              00000000
TXD8                              00000000
TXEN                              00000005
TXIE                              00000004
TXIF                              00000004
TXIP                              00000004
TXREG                             00000FAD
TXSTA                             00000FAC
UA                                00000001
USER_AIN_NotifyChange             000000F8
USER_DIN_NotifyToggle             0000009C
USER_DISPLAY_Init                 00000038
USER_DISPLAY_Tick                 00000044
USER_ENC_NotifyChange             000000AC
USER_Init                         00000000
USER_LCD_Clear                    00003302
USER_LCD_Cmd                      0000330A
USER_LCD_CursorSet                00003304
USER_LCD_Data                     00003308
USER_LCD_Init                     00003300
USER_LCD_PrintChar                00003306
USER_LCD_SpecialCharInit          0000330C
USER_MIDI_NotifyRx                0000009A
USER_MIDI_NotifyTx                00000098
USER_MPROC_DebugTrigger           00000036
USER_MPROC_NotifyFoundEvent       00000066
USER_MPROC_NotifyReceivedByte     0000008C
USER_MPROC_NotifyReceivedEvent    00000050
USER_MPROC_NotifyTimeout          00000080
USER_RESERVED_25                  00003060
USER_RESERVED_26                  00003064
USER_RESERVED_27                  00003068
USER_RESERVED_28                  0000306C
USER_RESERVED_29                  00003070
USER_RESERVED_30                  00003074
USER_RESERVED_31                  00003078
USER_RESERVED_32                  0000307C
USER_SR_Service_Finish            000000DA
USER_SR_Service_Prepare           000000BC
USER_Tick                         0000000C
USER_Timer                        00000018
VREFM                             00000002
VREFP                             00000003
W                                 00000000
WCOL                              00000007
WDTCON                            00000FD1
WR                                00000001
WREG                              00000FE8
WREN                              00000002
gpasm-0.14.3 #861 (Oct 28 2012) mios_wrapper\   11-16-2013  11:38:41        PAGE 71


SYMBOL TABLE
  LABEL                             VALUE 

WRERR                             00000003
Z                                 00000002
_AIN_NotifyChange                 00000000
_BORV_20_2L                       000000FF
_BORV_27_2L                       000000FB
_BORV_42_2L                       000000F7
_BORV_45_2L                       000000F3
_BOR_OFF_2L                       000000FD
_BOR_ON_2L                        000000FF
_CCP2MX_OFF_3H                    000000FE
_CCP2MX_ON_3H                     000000FF
_CONFIG1H                         00300001
_CONFIG1L                         00300000
_CONFIG2H                         00300003
_CONFIG2L                         00300002
_CONFIG3H                         00300005
_CONFIG3L                         00300004
_CONFIG4H                         00300007
_CONFIG4L                         00300006
_CONFIG5H                         00300009
_CONFIG5L                         00300008
_CONFIG6H                         0030000B
_CONFIG6L                         0030000A
_CONFIG7H                         0030000D
_CONFIG7L                         0030000C
_CP0_OFF_5L                       000000FF
_CP0_ON_5L                        000000FE
_CP1_OFF_5L                       000000FF
_CP1_ON_5L                        000000FD
_CP2_OFF_5L                       000000FF
_CP2_ON_5L                        000000FB
_CP3_OFF_5L                       000000FF
_CP3_ON_5L                        000000F7
_CPB_OFF_5H                       000000FF
_CPB_ON_5H                        000000BF
_CPD_OFF_5H                       000000FF
_CPD_ON_5H                        0000007F
_DEBUG_OFF_4L                     000000FF
_DEBUG_ON_4L                      0000007F
_DEVID1                           003FFFFE
_DEVID2                           003FFFFF
_DIN_NotifyToggle                 00000000
_DISPLAY_Init                     00000000
_DISPLAY_Tick                     00000000
_EBTR0_OFF_7L                     000000FF
_EBTR0_ON_7L                      000000FE
_EBTR1_OFF_7L                     000000FF
_EBTR1_ON_7L                      000000FD
_EBTR2_OFF_7L                     000000FF
_EBTR2_ON_7L                      000000FB
_EBTR3_OFF_7L                     000000FF
_EBTR3_ON_7L                      000000F7
_EBTRB_OFF_7H                     000000FF
gpasm-0.14.3 #861 (Oct 28 2012) mios_wrapper\   11-16-2013  11:38:41        PAGE 72


SYMBOL TABLE
  LABEL                             VALUE 

_EBTRB_ON_7H                      000000BF
_ECIO_OSC_1H                      000000FD
_EC_OSC_1H                        000000FC
_ENC_NotifyChange                 00000000
_HSPLL_OSC_1H                     000000FE
_HS_OSC_1H                        000000FA
_IDLOC0                           00200000
_IDLOC1                           00200001
_IDLOC2                           00200002
_IDLOC3                           00200003
_IDLOC4                           00200004
_IDLOC5                           00200005
_IDLOC6                           00200006
_IDLOC7                           00200007
_IRQ_TMP1                         0000000B
_IRQ_TMP2                         0000000C
_IRQ_TMP3                         0000000D
_IRQ_TMP4                         0000000E
_IRQ_TMP5                         0000000F
_Init                             00000000
_LP_OSC_1H                        000000F8
_LVP_OFF_4L                       000000FB
_LVP_ON_4L                        000000FF
_MIOS_AIN_DeadbandGet             00002C5C
_MIOS_AIN_DeadbandSet             00002C60
_MIOS_AIN_DynamicPrioGet          00002DD4
_MIOS_AIN_DynamicPrioSet          00002DD0
_MIOS_AIN_LastPinsGet             00002DD8
_MIOS_AIN_Muxed                   00002C64
_MIOS_AIN_NumberGet               00002C68
_MIOS_AIN_NumberSet               00002C6C
_MIOS_AIN_Pin7bitGet              00002C70
_MIOS_AIN_PinGet                  00000000
_MIOS_AIN_PinLSBGet               00002C78
_MIOS_AIN_PinMSBGet               00002C7C
_MIOS_AIN_UnMuxed                 00002C80
_MIOS_BANKSTICK_CtrlGet           00002DE0
_MIOS_BANKSTICK_CtrlSet           00002DDC
_MIOS_BANKSTICK_Read              00000000
_MIOS_BANKSTICK_ReadPage          00000000
_MIOS_BANKSTICK_Write             00000000
_MIOS_BANKSTICK_WritePage         00000000
_MIOS_BOX_CFG0                    00000000
_MIOS_BOX_CFG1                    00000001
_MIOS_BOX_STAT                    00000002
_MIOS_CLCD_SpecialCharInit        00000000
_MIOS_CLCD_SpecialCharsInit       00000000
_MIOS_DIN_PinAutoRepeatDisable    00002DC0
_MIOS_DIN_PinAutoRepeatEnable     00002DBC
_MIOS_DIN_PinAutoRepeatGet        00002DC4
_MIOS_DIN_PinGet                  00002CB4
_MIOS_DIN_SRGet                   00002CB8
_MIOS_DOUT_PinGet                 00002CBC
gpasm-0.14.3 #861 (Oct 28 2012) mios_wrapper\   11-16-2013  11:38:41        PAGE 73


SYMBOL TABLE
  LABEL                             VALUE 

_MIOS_DOUT_PinSet                 00000000
_MIOS_DOUT_PinSet0                00002CC4
_MIOS_DOUT_PinSet1                00002CC8
_MIOS_DOUT_SRGet                  00002CCC
_MIOS_DOUT_SRSet                  00000000
_MIOS_Delay                       00002D9C
_MIOS_EEPROM_Read                 00000000
_MIOS_EEPROM_ReadPage             00000000
_MIOS_EEPROM_Write                00000000
_MIOS_EEPROM_WritePage            00000000
_MIOS_ENC_Abs7bitAdd              00000000
_MIOS_ENC_Abs7bitGet              00002CD8
_MIOS_ENC_Abs7bitSet              00000000
_MIOS_ENC_NumberGet               00002CE0
_MIOS_ENC_PIN_TABLE               00003280
_MIOS_ENC_SpeedGet                00000000
_MIOS_ENC_SpeedSet                00000000
_MIOS_FLASH_Read                  00000000
_MIOS_FLASH_Write                 00000000
_MIOS_GLCD_FontInit               00000000
_MIOS_GLCD_GCursorGet             00002D58
_MIOS_GLCD_GCursorSet             00000000
_MIOS_GPCounterGet                00002DA0
_MIOS_HLP_16bitAddSaturate        00000000
_MIOS_HLP_Dec2BCD                 00000000
_MIOS_HLP_GetBitANDMask           00002D88
_MIOS_HLP_GetBitORMask            00002D8C
_MIOS_IIC_AckSend                 00002E14
_MIOS_IIC_ByteReceive             00002E10
_MIOS_IIC_ByteSend                00002E0C
_MIOS_IIC_CtrlGet                 00002E20
_MIOS_IIC_CtrlSet                 00002E1C
_MIOS_IIC_NakSend                 00002E18
_MIOS_IIC_Start                   00002E04
_MIOS_IIC_Stop                    00002E08
_MIOS_LCD_Clear                   00002D04
_MIOS_LCD_Cmd                     00002D08
_MIOS_LCD_CursorGet               00002D0C
_MIOS_LCD_CursorSet               00002D10
_MIOS_LCD_Data                    00002D14
_MIOS_LCD_Init                    00002D18
_MIOS_LCD_MessageStart            00002DF4
_MIOS_LCD_MessageStop             00002DF8
_MIOS_LCD_PrintBCD1               00002D1C
_MIOS_LCD_PrintBCD2               00002D20
_MIOS_LCD_PrintBCD3               00002D24
_MIOS_LCD_PrintBCD4               00000000
_MIOS_LCD_PrintBCD5               00000000
_MIOS_LCD_PrintCString            00000000
_MIOS_LCD_PrintCStringLoop        0000000E
_MIOS_LCD_PrintCString_End        0000001A
_MIOS_LCD_PrintChar               00002D28
_MIOS_LCD_PrintHex1               00002D2C
gpasm-0.14.3 #861 (Oct 28 2012) mios_wrapper\   11-16-2013  11:38:41        PAGE 74


SYMBOL TABLE
  LABEL                             VALUE 

_MIOS_LCD_PrintHex2               00002D30
_MIOS_LCD_PrintMessage            00000000
_MIOS_LCD_PrintPreconfString      00000000
_MIOS_LCD_PrintString             00000000
_MIOS_LCD_TypeAutoSet             00002D40
_MIOS_LCD_TypeGet                 00002D44
_MIOS_LCD_TypeSet                 00000000
_MIOS_LCD_YAddressGet             00000000
_MIOS_LCD_YAddressSet             00000000
_MIOS_MF_DeadbandGet              00002C94
_MIOS_MF_DeadbandSet              00002C98
_MIOS_MF_Disable                  00002C9C
_MIOS_MF_Enable                   00002CA0
_MIOS_MF_FaderMove                00000000
_MIOS_MF_PWM_DutyCycleDownGet     00002C84
_MIOS_MF_PWM_DutyCycleDownSet     00002C88
_MIOS_MF_PWM_DutyCycleUpGet       00002C8C
_MIOS_MF_PWM_DutyCycleUpSet       00002C90
_MIOS_MF_PWM_PeriodGet            00002DFC
_MIOS_MF_PWM_PeriodSet            00002E00
_MIOS_MF_SuspendDisable           00002CA8
_MIOS_MF_SuspendEnable            00002CAC
_MIOS_MF_SuspendGet               00002CB0
_MIOS_MF_TouchDetectionReset      00002E2C
_MIOS_MIDI_BeginStream            00002C00
_MIOS_MIDI_DeviceIDAutoSet        00002C04
_MIOS_MIDI_DeviceIDGet            00002C08
_MIOS_MIDI_DeviceIDSet            00002C0C
_MIOS_MIDI_EndStream              00002C10
_MIOS_MIDI_Init                   00002C14
_MIOS_MIDI_InterfaceAutoSet       00002C18
_MIOS_MIDI_InterfaceGet           00002C1C
_MIOS_MIDI_InterfaceSet           00002C20
_MIOS_MIDI_MergerGet              00002C24
_MIOS_MIDI_MergerSet              00002C28
_MIOS_MIDI_RxBufferFree           00002C2C
_MIOS_MIDI_RxBufferGet            00002C30
_MIOS_MIDI_RxBufferPut            00002C34
_MIOS_MIDI_RxBufferUsed           00002C38
_MIOS_MIDI_TxBufferFlush          00002C3C
_MIOS_MIDI_TxBufferFree           00002C40
_MIOS_MIDI_TxBufferGet            00002C44
_MIOS_MIDI_TxBufferPut            00002C48
_MIOS_MIDI_TxBufferUsed           00002C4C
_MIOS_MPROC_EVENT_TABLE           00003080
_MIOS_MPROC_MergerDisable         00002C50
_MIOS_MPROC_MergerEnable          00002C54
_MIOS_MPROC_MergerGet             00002C58
_MIOS_PARAMETER1                  00000003
_MIOS_PARAMETER2                  00000004
_MIOS_PARAMETER3                  00000005
_MIOS_Reset                       00002DA4
_MIOS_SRIO_DebounceGet            00002E28
gpasm-0.14.3 #861 (Oct 28 2012) mios_wrapper\   11-16-2013  11:38:41        PAGE 75


SYMBOL TABLE
  LABEL                             VALUE 

_MIOS_SRIO_DebounceSet            00002E24
_MIOS_SRIO_NumberGet              00002CEC
_MIOS_SRIO_NumberSet              00002CF0
_MIOS_SRIO_TS_SensitivityGet      00002CF4
_MIOS_SRIO_TS_SensitivitySet      00002CF8
_MIOS_SRIO_UpdateFrqGet           00002CFC
_MIOS_SRIO_UpdateFrqSet           00002D00
_MIOS_SystemResume                00002DA8
_MIOS_SystemSuspend               00002DAC
_MIOS_TIMER_Init                  00000000
_MIOS_TIMER_ReInit                00000000
_MIOS_TIMER_Start                 00002D7C
_MIOS_TIMER_Stop                  00002D80
_MIOS_UserResume                  00002DB0
_MIOS_UserSuspend                 00002DB4
_MPROC_NotifyFoundEvent           00000000
_MPROC_NotifyReceivedByte         00000000
_MPROC_NotifyReceivedEvnt         00000000
_MPROC_NotifyTimeout              00000000
_OSCS_OFF_1H                      000000FF
_OSCS_ON_1H                       000000DF
_PWRT_OFF_2L                      000000FF
_PWRT_ON_2L                       000000FE
_RCIO_OSC_1H                      000000FF
_RC_OSC_1H                        000000FB
_SR_Service_Finish                00000000
_SR_Service_Prepare               00000000
_STVR_OFF_4L                      000000FE
_STVR_ON_4L                       000000FF
_TMP1                             00000006
_TMP2                             00000007
_TMP3                             00000008
_TMP4                             00000009
_TMP5                             0000000A
_Tick                             00000000
_Timer                            00000000
_USER_AIN_NotifyChange            00003028
_USER_DIN_NotifyToggle            00003020
_USER_DISPLAY_Init                00003010
_USER_DISPLAY_Tick                00003014
_USER_ENC_NotifyChange            00003024
_USER_LCD_Clear                   00003040
_USER_LCD_Cmd                     00003058
_USER_LCD_CursorSet               00003044
_USER_LCD_Data                    00003054
_USER_LCD_Init                    0000303C
_USER_LCD_PrintChar               00003048
_USER_LCD_SpecialCharInit         0000305C
_USER_MIDI_NotifyRx               0000304C
_USER_MIDI_NotifyTx               00003050
_USER_MPROC_DebugTrigger          0000300C
_USER_MPROC_NotifyFoundEvent      00003038
_USER_MPROC_NotifyReceivedByte    0000302C
gpasm-0.14.3 #861 (Oct 28 2012) mios_wrapper\   11-16-2013  11:38:41        PAGE 76


SYMBOL TABLE
  LABEL                             VALUE 

_USER_MPROC_NotifyReceivedEvent   00003034
_USER_MPROC_NotifyTimeout         00003030
_USER_SR_Service_Finish           0000301C
_USER_SR_Service_Prepare          00003018
_USER_Tick                        00003004
_USER_Timer                       00003008
_User_Init                        00003000
_WDTPS_128_2H                     000000FF
_WDTPS_16_2H                      000000F9
_WDTPS_1_2H                       000000F1
_WDTPS_2_2H                       000000F3
_WDTPS_32_2H                      000000FB
_WDTPS_4_2H                       000000F5
_WDTPS_64_2H                      000000FD
_WDTPS_8_2H                       000000F7
_WDT_OFF_2H                       000000FE
_WDT_ON_2H                        000000FF
_WRT0_OFF_6L                      000000FF
_WRT0_ON_6L                       000000FE
_WRT1_OFF_6L                      000000FF
_WRT1_ON_6L                       000000FD
_WRT2_OFF_6L                      000000FF
_WRT2_ON_6L                       000000FB
_WRT3_OFF_6L                      000000FF
_WRT3_ON_6L                       000000F7
_WRTB_OFF_6H                      000000FF
_WRTB_ON_6H                       000000BF
_WRTC_OFF_6H                      000000FF
_WRTC_ON_6H                       000000DF
_WRTD_OFF_6H                      000000FF
_WRTD_ON_6H                       0000007F
_XT_OSC_1H                        000000F9
__18F452                          00000001

Errors   :     0
Warnings :     0 reported,     0 suppressed
Messages :     0 reported,     0 suppressed

